(dp0
S'METTS MARK'
p1
(dp2
S'salary'
p3
F1.0527658241965052
sS'to_messages'
p4
F-0.6452779267640415
sS'bonus_to_total'
p5
F0.38988713458162905
sS'from_poi_ratio'
p6
F-0.5827598037244724
sS'total_payments'
p7
F-0.1116520551494916
sS'shared_poi_ratio'
p8
F1.2577927722713818
sS'bonus'
p9
F0.02212138733878891
sS'total_stock_value'
p10
F-0.349047335242741
sS'expenses'
p11
F1.2872922595858869
sS'bonus_to_salary'
p12
F-0.08050758798749617
sS'exercised_stock_options'
p13
F-0.41232914456224135
sS'from_messages'
p14
F-0.39687372104295515
sS'other'
p15
F-0.24167767517132943
sS'from_this_person_to_poi'
p16
F-0.515118158796272
sS'to_poi_ratio'
p17
F0.3961731036710028
sS'poi'
p18
I00
sS'deferred_income'
p19
F0.309651006712694
sS'shared_receipt_with_poi'
p20
F-0.44753417286754626
sS'restricted_stock'
p21
F-0.10387480294326358
sS'from_poi_to_this_person'
p22
F-0.36177590492664824
ssS'ELLIOTT STEVEN'
p23
(dp24
g3
F-0.01731130032118663
sg4
F0.09036201550338599
sg5
F2.2344033051704018
sg6
F-0.47130134359101367
sg7
F-0.20708108198305553
sg8
F-0.24568862943260034
sg9
F-0.21791855598665869
sg10
F0.6365213053552963
sg11
F0.9435121149172325
sg12
F0.046814654279927446
sg13
F0.6023434889821132
sg14
F0.081526768000536
sg15
F-0.22996476508475552
sg16
F0.03321428812769949
sg17
F-0.16751571639684631
sg18
I00
sg19
F-0.42508392668384376
sg20
F-0.001498879687102719
sg21
F0.49947214203536483
sg22
F0.05105979294341454
ssS'CORDES WILLIAM R'
p25
(dp26
g3
F-0.9560994455950618
sg4
F-0.6716359174739289
sg5
F-0.5680599172023625
sg6
F-0.777231533038752
sg7
F-0.23084847778536668
sg8
F-2.2275309847027267
sg9
F-0.5539744766422853
sg10
F-0.27576085939579215
sg11
F-0.7713934495720123
sg12
F-0.5933960162336667
sg13
F-0.277080099469322
sg14
F-0.40958592386494314
sg15
F-0.24349395389431658
sg16
F-0.5306614407563215
sg17
F-0.6720052952652628
sg18
I00
sg19
F0.309651006712694
sg20
F-1.2532125707713562
sg21
F-0.20351615483852073
sg22
F-0.9256490532369779
ssS'HANNON KEVIN P'
p27
(dp28
g3
F0.38003749187527536
sg4
F-0.4993895130674551
sg5
F8.24071621150189
sg6
F2.923808565473632
sg7
F-0.19844219909837746
sg8
F1.7869402433208472
sg9
F0.8862651833104003
sg10
F0.5899945995670406
sg11
F-0.028272071253835716
sg12
F1.3344074182189296
sg13
F0.736722549805531
sg14
F-0.39463039113319254
sg15
F-0.23164638866103843
sg16
F-0.20425251959528026
sg17
F-0.12115408483864679
sg18
I01
sg19
F-5.405375531125285
sg20
F-0.030933386373805986
sg21
F0.030500906399868986
sg22
F-0.48260586527886173
ssS'MORDAUNT KRISTINA M'
p29
(dp30
g3
F0.5107443314135852
sg4
F0.09036201550338599
sg5
F0.30855104298216074
sg6
F-0.47130134359101367
sg7
F-0.16029312936425336
sg8
F-0.24568862943260034
sg9
F-0.24192255031920346
sg10
F-0.4099494943763985
sg11
F-0.006899062958248455
sg12
F-0.21292466650918976
sg13
F-0.41232914456224135
sg14
F0.081526768000536
sg15
F-0.24202109798734253
sg16
F0.03321428812769949
sg17
F-0.16751571639684631
sg18
I00
sg19
F0.309651006712694
sg20
F-0.001498879687102719
sg21
F-0.2926772824194438
sg22
F0.05105979294341454
ssS'MEYER ROCKFORD G'
p31
(dp32
g3
F-0.9560994455950618
sg4
F-0.9977394304427691
sg5
F-0.5680599172023625
sg6
F-0.777231533038752
sg7
F-0.023373958283568835
sg8
F-2.14451523929951
sg9
F-0.5539744766422853
sg10
F-0.28907370469367827
sg11
F-0.7713934495720123
sg12
F-0.5933960162336667
sg13
F-0.3099376188832359
sg14
F-0.3976214976795427
sg15
F-0.24349395389431658
sg16
F-0.5306614407563215
sg17
F-1.0832351244521563
sg18
I00
sg19
F0.309651006712694
sg20
F-1.2982504936355443
sg21
F-0.1653853262632269
sg22
F-1.1270323204906671
ssS'MCMAHON JEFFREY'
p33
(dp34
g3
F1.0783580037027456
sg4
F0.303609738791907
sg5
F0.5070621301843757
sg6
F2.2775952149397236
sg7
F0.22937530332615547
sg8
F1.5922186912603917
sg9
F1.9424409339423698
sg10
F-0.17472899196175423
sg11
F2.2218756223292937
sg12
F1.6011626632454437
sg13
F-0.18325458871194147
sg14
F-0.3826659649477921
sg15
F0.06689450996567943
sg16
F-0.12653610979503235
sg17
F-0.3094594900177772
sg18
I00
sg19
F0.309651006712694
sg20
F1.4615733352088731
sg21
F-0.11704201999037518
sg22
F0.04099062958073008
ssS'HORTON STANLEY C'
p35
(dp36
g3
F-0.9560994455950618
sg4
F0.3005448561512224
sg5
F-0.5680599172023625
sg6
F-0.6983916427762064
sg7
F0.12072151261456829
sg8
F-0.5545827436224029
sg9
F-0.5539744766422853
sg10
F0.7299908646496551
sg11
F-0.7713934495720123
sg12
F-0.5933960162336667
sg13
F0.6687853474846522
sg14
F0.38380508755442544
sg15
F-0.24349395389431658
sg16
F-0.29751221135557776
sg17
F-0.49498397815655565
sg18
I00
sg19
F0.309651006712694
sg20
F0.017857696729064496
sg21
F0.62867643076908
sg22
F-0.24094594457443475
ssS'PIPER GREGORY F'
p37
(dp38
g3
F0.1263014666505278
sg4
F-0.38108504313702996
sg5
F-0.17780628455901515
sg6
F0.44215876968862294
sg7
F-0.035789244343051696
sg8
F0.07021858369609622
sg9
F-0.16991056732156917
sg10
F-0.3012982258588805
sg11
F0.16860411752002122
sg12
F0.04119555954033347
sg13
F-0.2296822443477043
sg14
F-0.252552830181562
sg15
F-0.24268184766070508
sg16
F0.2154160933260585
sg17
F0.46482262671310925
sg18
I00
sg19
F0.24853509163066403
sg20
F-0.39749203635178165
sg21
F-0.19187419099034722
sg22
F0.10140560975683682
ssS'HUMPHREY GENE E'
p39
(dp40
g3
F-0.23817839972085925
sg4
F-1.0614889893690085
sg5
F-0.5680599172023625
sg6
F4.862448617075358
sg7
F0.11717018266486033
sg8
F1.5202943404940785
sg9
F-0.5539744766422853
sg10
F-0.07446650450976082
sg11
F-0.6623670926484547
sg12
F-0.5933960162336667
sg13
F0.061310791264518334
sg14
F-0.4058470406820055
sg15
F-0.24349395389431658
sg16
F-0.2664256474354786
sg17
F1.3712929185071148
sg18
I00
sg19
F0.309651006712694
sg20
F-1.1768983125848154
sg21
F-0.3972238125018185
sg22
F-0.9256490532369779
ssS'UMANOFF ADAM S'
p41
(dp42
g3
F0.6287978701831445
sg4
F-1.0719095903473361
sg5
F0.6147849978764898
sg6
F-0.777231533038752
sg7
F-0.10394747872490392
sg8
F-0.9393509472254884
sg9
F0.20335154454950186
sg10
F-0.44367314795136004
sg11
F0.38833785449150826
sg12
F0.26119968358306184
sg13
F-0.41232914456224135
sg14
F-0.40509926404541796
sg15
F-0.24349395389431658
sg16
F-0.5306614407563215
sg17
F2.3133009782374296
sg18
I00
sg19
F0.309651006712694
sg20
F-1.2744804787905561
sg21
F-0.3972238125018185
sg22
F-0.88537239978624
ssS'BLACHMAN JEREMY M'
p43
(dp44
g3
F0.4088863586019452
sg4
F0.37716692216833714
sg5
F0.14713341751358563
sg6
F0.028437059834692042
sg7
F-0.004671215197813927
sg8
F1.5646766166194217
sg9
F0.2621613306642365
sg10
F-0.289319382262046
sg11
F1.06699090441656
sg12
F0.47593767875380494
sg13
F-0.2535382379929426
sg14
F-0.40809037059176806
sg15
F-0.24321002986405652
sg16
F-0.49957487683622237
sg17
F-0.7658820037463111
sg18
I00
sg19
F0.309651006712694
sg20
F1.5841765696724963
sg21
F-0.3024390031722794
sg22
F-0.6235741523564442
ssS'SUNDE MARTIN'
p45
(dp46
g3
F0.45798380168902464
sg4
F0.48259888500788695
sg5
F0.20000334220310176
sg6
F1.1521327288423906
sg7
F-0.05740637698988632
sg8
F1.6929601273453114
sg9
F0.11813736466896795
sg10
F-0.33063235395293245
sg11
F-0.7713934495720123
sg12
F0.2566560427385826
sg13
F-0.41232914456224135
sg14
F-0.39014373131366736
sg15
F-0.1275005491496176
sg16
F-0.32859877527567694
sg17
F-0.6440721168414609
sg18
I00
sg19
F0.309651006712694
sg20
F1.8831783353541898
sg21
F-0.046786611383534966
sg22
F-0.38191423165201716
ssS'GIBBS DANA R'
p47
(dp48
g3
F-0.9560994455950618
sg4
F-1.036356951715395
sg5
F-0.5680599172023625
sg6
F-0.777231533038752
sg7
F-0.12235061061974435
sg8
F-1.9633638650220733
sg9
F-0.5539744766422853
sg10
F-0.08489736916857812
sg11
F-0.7713934495720123
sg12
F-0.5933960162336667
sg13
F0.047929466319856756
sg14
F-0.40958592386494314
sg15
F-0.24349395389431658
sg16
F-0.5306614407563215
sg17
F-1.0832351244521563
sg18
I00
sg19
F0.309651006712694
sg20
F-1.2969994402226503
sg21
F-0.3972238125018185
sg22
F-1.1270323204906671
ssS'LOWRY CHARLES P'
p49
(dp50
g3
F-0.9560994455950618
sg4
F0.09036201550338599
sg5
F-0.5680599172023625
sg6
F-0.47130134359101367
sg7
F-0.23084847778536668
sg8
F-0.24568862943260034
sg9
F-0.5539744766422853
sg10
F-0.38347405688201774
sg11
F-0.7713934495720123
sg12
F-0.5933960162336667
sg13
F-0.3351022199188264
sg14
F0.081526768000536
sg15
F-0.24349395389431658
sg16
F0.03321428812769949
sg17
F-0.16751571639684631
sg18
I00
sg19
F0.309651006712694
sg20
F-0.001498879687102719
sg21
F-0.3201659350751251
sg22
F0.05105979294341454
ssS'COLWELL WESLEY'
p51
(dp52
g3
F0.6285397516344764
sg4
F-0.06233724850583281
sg5
F0.7969592248945498
sg6
F0.773680508242628
sg7
F-0.06354846253161948
sg8
F0.265823816898998
sg9
F0.5982172513198631
sg10
F-0.33074201122176283
sg11
F-0.41086856806708066
sg12
F0.7069930598198035
sg13
F-0.41232914456224135
sg14
F-0.38864817804049234
sg15
F-0.1372938405168965
sg16
F-0.3596853391957761
sg17
F3.2059060291148977
sg18
I01
sg19
F0.04551393658557064
sg20
F0.09041879467692317
sg21
F-0.047126559335172055
sg22
F3.706166093597873
ssS'MULLER MARK S'
p53
(dp54
g3
F0.42595513411812447
sg4
F-1.0565851771439132
sg5
F0.01431931902613159
sg6
F-0.777231533038752
sg7
F0.12860300445200018
sg8
F1.1188438520065436
sg9
F0.5022012739896841
sg10
F-0.21451727475402113
sg11
F-0.7713934495720123
sg12
F0.7733567185426612
sg13
F-0.1931586738825565
sg14
F-0.40659481731859304
sg15
F-0.2425054389801391
sg16
F-0.5306614407563215
sg17
F1.68893772406655
sg18
I00
sg19
F-1.0086324644414042
sg20
F-1.1831535796492858
sg21
F-0.21645573712155675
sg22
F-0.88537239978624
ssS'JACKSON CHARLENE R'
p55
(dp56
g3
F0.6286276217787038
sg4
F-0.9818020407112092
sg5
F0.2008851317255021
sg6
F1.1362313750356778
sg7
F-0.16897590433422463
sg8
F-0.5700912403799538
sg9
F-0.31393453331683774
sg10
F-0.3262953927970522
sg11
F-0.5491272621793933
sg12
F-0.32249664708415104
sg13
F-0.37393136281485934
sg14
F-0.37668375185509184
sg15
F-0.24095220752048113
sg16
F-0.23533908351537944
sg17
F1.9611407427841492
sg18
I00
sg19
F0.309651006712694
sg20
F-1.1794004194106036
sg21
F-0.1261318672104767
sg22
F-0.6235741523564442
ssS'WESTFAHL RICHARD K'
p57
(dp58
g3
F-0.6060247909929599
sg4
F0.09036201550338599
sg5
F-0.5680599172023625
sg6
F-0.47130134359101367
sg7
F-0.14529427209499277
sg8
F-0.24568862943260034
sg9
F-0.5539744766422853
sg10
F-0.38141596138663914
sg11
F0.361004855118602
sg12
F-0.5933960162336667
sg13
F-0.41232914456224135
sg14
F0.081526768000536
sg15
F0.1752209220550103
sg16
F0.03321428812769949
sg17
F-0.16751571639684631
sg18
I00
sg19
F0.2898492522085713
sg20
F-0.001498879687102719
sg21
F-0.20422061925157398
sg22
F0.05105979294341454
ssS'WALTERS GARETH W'
p59
(dp60
g3
F-0.9560994455950618
sg4
F0.09036201550338599
sg5
F-0.5680599172023625
sg6
F-0.47130134359101367
sg7
F-0.22103618321892426
sg8
F-0.24568862943260034
sg9
F-0.5539744766422853
sg10
F-0.2770314604340392
sg11
F-0.033817264417348655
sg12
F-0.5933960162336667
sg13
F-0.19855141443791444
sg14
F0.081526768000536
sg15
F-0.24349395389431658
sg16
F0.03321428812769949
sg17
F-0.16751571639684631
sg18
I00
sg19
F0.309651006712694
sg20
F-0.001498879687102719
sg21
F-0.3972238125018185
sg22
F0.05105979294341454
ssS'WALLS JR ROBERT H'
p61
(dp62
g3
F1.00500290892488
sg4
F-0.7286427345906623
sg5
F0.23303669414110767
sg6
F-0.777231533038752
sg7
F-0.028924679361556224
sg8
F-1.1542373672629753
sg9
F0.2621613306642365
sg10
F0.5104093002177327
sg11
F0.3406142629346607
sg12
F0.1508921695631081
sg13
F0.48951318949368866
sg14
F-0.30938385456221423
sg15
F-0.24349186621762348
sg16
F-0.5306614407563215
sg17
F-0.28725106759979063
sg18
I00
sg19
F0.309651006712694
sg20
F-1.0567971849469802
sg21
F0.38117326325460943
sg22
F-0.7846807661593955
ssS'CHAN RONNIE'
p63
(dp64
g3
F-0.9560994455950618
sg4
F0.09036201550338599
sg5
F-0.5680599172023625
sg6
F-0.47130134359101367
sg7
F-0.23084847778536668
sg8
F-0.24568862943260034
sg9
F-0.5539744766422853
sg10
F-0.44367314795136004
sg11
F-0.7713934495720123
sg12
F-0.5933960162336667
sg13
F-0.41232914456224135
sg14
F0.081526768000536
sg15
F-0.24349395389431658
sg16
F0.03321428812769949
sg17
F-0.16751571639684631
sg18
I00
sg19
F0.1285309588483179
sg20
F-0.001498879687102719
sg21
F-0.3809484282685736
sg22
F0.05105979294341454
ssS'BELFER ROBERT'
p65
(dp66
g3
F-0.9560994455950618
sg4
F0.09036201550338599
sg5
F-0.5680599172023625
sg6
F-0.47130134359101367
sg7
F-0.2193422405921354
sg8
F-0.24568862943260034
sg9
F-0.5539744766422853
sg10
F-0.4508045903621834
sg11
F-0.7713934495720123
sg12
F-0.5933960162336667
sg13
F-0.41164755660008706
sg14
F0.081526768000536
sg15
F-0.24349395389431658
sg16
F0.03321428812769949
sg17
F-0.16751571639684631
sg18
I00
sg19
F0.309651006712694
sg20
F-0.001498879687102719
sg21
F-0.3972238125018185
sg22
F0.05105979294341454
ssS'SHANKMAN JEFFREY A'
p67
(dp68
g3
F0.7140374019677708
sg4
F0.8344474121584776
sg5
F0.5477389163726755
sg6
F-0.6026349450270135
sg7
F0.11026397071752399
sg8
F-0.20305754540821563
sg9
F1.3663450699612956
sg10
F-0.10854969806792289
sg11
F3.1359810670121684
sg12
F1.4629699082816972
sg13
F-0.11315705340416783
sg14
F1.5862299191871727
sg15
F-0.24225074242358227
sg16
F0.7594309619277939
sg17
F-0.16634964128276955
sg18
I00
sg19
F0.309651006712694
sg20
F0.8385487355876039
sg21
F-0.08127428093730206
sg22
F0.765970391694011
ssS'WODRASKA JOHN'
p69
(dp70
g3
F-0.9560994455950618
sg4
F0.09036201550338599
sg5
F-0.5680599172023625
sg6
F-0.47130134359101367
sg7
F-0.2095666537287387
sg8
F-0.24568862943260034
sg9
F-0.5539744766422853
sg10
F-0.44367314795136004
sg11
F-0.7713934495720123
sg12
F-0.5933960162336667
sg13
F-0.41232914456224135
sg14
F0.081526768000536
sg15
F-0.04559994864140296
sg16
F0.03321428812769949
sg17
F-0.16751571639684631
sg18
I00
sg19
F0.309651006712694
sg20
F-0.001498879687102719
sg21
F-0.3972238125018185
sg22
F0.05105979294341454
ssS'BERGSIEKER RICHARD P'
p71
(dp72
g3
F0.0759463821241932
sg4
F-0.9051799746940945
sg5
F0.1167950854602647
sg6
F-0.777231533038752
sg7
F-0.16137886913140392
sg8
F0.10973183780504159
sg9
F-0.31393453331683774
sg10
F-0.33704859807058773
sg11
F0.5204837372424681
sg12
F-0.17742460169441143
sg13
F-0.41232914456224135
sg14
F-0.3744404219453293
sg15
F0.20255487299762012
sg16
F-0.5306614407563215
sg17
F-0.755110226803293
sg18
I00
sg19
F-0.5810850822605826
sg20
F-1.0342782235148862
sg21
F-0.06667757773957489
sg22
F-1.0464790135891915
ssS'URQUHART JOHN A'
p73
(dp74
g3
F-0.9560994455950618
sg4
F0.09036201550338599
sg5
F-0.5680599172023625
sg6
F-0.47130134359101367
sg7
F-0.20518047611067894
sg8
F-0.24568862943260034
sg9
F-0.5539744766422853
sg10
F-0.44367314795136004
sg11
F4.220502959861901
sg12
F-0.5933960162336667
sg13
F-0.41232914456224135
sg14
F0.081526768000536
sg15
F-0.24349395389431658
sg16
F0.03321428812769949
sg17
F-0.16751571639684631
sg18
I00
sg19
F0.24242405017119728
sg20
F-0.001498879687102719
sg21
F-0.3972238125018185
sg22
F0.05105979294341454
ssS'BIBI PHILIPPE A'
p75
(dp76
g3
F0.21710427694155365
sg4
F-0.15489670425450738
sg5
F0.25988297652264414
sg6
F0.3507044969840698
sg7
F-0.0009939340468298249
sg8
F1.0886754051070413
sg9
F0.4061852966595051
sg10
F-0.14546101404904685
sg11
F0.07040616929371732
sg12
F0.870293723507392
sg13
F-0.10821144285137989
sg14
F-0.38864817804049234
sg15
F0.20085550416944595
sg16
F-0.40631518507592485
sg17
F-0.6335692527364069
sg18
I00
sg19
F0.309651006712694
sg20
F0.3456336909073226
sg21
F-0.20765419384274036
sg22
F-0.663850805807182
ssS'PIRO JIM'
p77
(dp78
g3
F-0.9560994455950618
sg4
F-1.1043973463385928
sg5
F-0.5680599172023625
sg6
F-0.4247515236566203
sg7
F-0.23084847778536668
sg8
F-2.3337277377722354
sg9
F-0.5539744766422853
sg10
F-0.43602237000924704
sg11
F-0.7713934495720123
sg12
F-0.5933960162336667
sg13
F-0.41232914456224135
sg14
F-0.40659481731859304
sg15
F-0.24349395389431658
sg16
F-0.515118158796272
sg17
F-1.0832351244521563
sg18
I00
sg19
F0.309651006712694
sg20
F-1.3220205084805325
sg21
F-0.3735056739999881
sg22
F-1.1270323204906671
ssS'RIEKER PAULA H'
p79
(dp80
g3
F0.4124835426312558
sg4
F-0.3259171556047074
sg5
F0.5116444331877268
sg6
F2.524044652393897
sg7
F-0.10746793828214223
sg8
F1.597560860013475
sg9
F0.11813736466896795
sg10
F-0.13331930191281385
sg11
F-0.04503863955926066
sg12
F0.28491709028086804
sg13
F-0.07304191897406118
sg14
F-0.35724155930381607
sg15
F-0.24145846911855512
sg16
F0.2154160933260585
sg17
F-0.25520156779119735
sg18
I01
sg19
F0.12630142797081664
sg20
F0.24805152470158165
sg21
F-0.2550027261686187
sg22
F-0.422190885102755
ssS'WHALEY DAVID A'
p81
(dp82
g3
F-0.9560994455950618
sg4
F0.09036201550338599
sg5
F-0.5680599172023625
sg6
F-0.47130134359101367
sg7
F-0.23084847778536668
sg8
F-0.24568862943260034
sg9
F-0.5539744766422853
sg10
F-0.4277068555259941
sg11
F-0.7713934495720123
sg12
F-0.5933960162336667
sg13
F-0.3918466482310565
sg14
F0.081526768000536
sg15
F-0.24349395389431658
sg16
F0.03321428812769949
sg17
F-0.16751571639684631
sg18
I00
sg19
F0.309651006712694
sg20
F-0.001498879687102719
sg21
F-0.3972238125018185
sg22
F0.05105979294341454
ssS'BECK SALLY W'
p83
(dp84
g3
F0.31433808341322494
sg4
F3.3439733183510185
sg5
F0.6565218990517572
sg6
F-0.27598434493282387
sg7
F-0.12206480691346175
sg8
F-0.9771193898707583
sg9
F0.11813736466896795
sg10
F-0.42328999659606925
sg11
F0.04012592158587306
sg12
F0.3527696538330284
sg13
F-0.41232914456224135
sg14
F2.8290346891956464
sg15
F-0.2429031413901725
sg16
F5.4690453958228185
sg17
F-0.464754456129186
sg18
I00
sg19
F0.309651006712694
sg20
F1.9757562879083543
sg21
F-0.3340341067481787
sg22
F1.772886727962457
ssS'HAUG DAVID L'
p85
(dp86
g3
F-0.9560994455950618
sg4
F-0.7887144343480802
sg5
F-0.5680599172023625
sg6
F1.300545364371709
sg7
F-0.23079515619837365
sg8
F1.0475293291759553
sg9
F-0.5539744766422853
sg10
F-0.08505522388005077
sg11
F-0.7610235017268601
sg12
F-0.5933960162336667
sg13
F-0.41232914456224135
sg14
F-0.4043514874088304
sg15
F-0.24349395389431658
sg16
F-0.42185846703597446
sg17
F-0.8639125488858131
sg18
I00
sg19
F0.309651006712694
sg20
F-0.7365275112460868
sg21
F0.7145258235114146
sg22
F-1.0464790135891915
ssS'ECHOLS JOHN B'
p87
(dp88
g3
F0.044768956575496344
sg4
F0.09036201550338599
sg5
F-0.442124845970886
sg6
F-0.47130134359101367
sg7
F0.07138097143443066
sg8
F-0.24568862943260034
sg9
F-0.3619425219819272
sg10
F-0.28049067823012225
sg11
F-0.301361918822274
sg12
F-0.2502527523282825
sg13
F-0.28753982925565974
sg14
F0.081526768000536
sg15
F-0.18736154680889525
sg16
F0.03321428812769949
sg17
F-0.16751571639684631
sg18
I00
sg19
F0.309651006712694
sg20
F-0.001498879687102719
sg21
F-0.19290255861395736
sg22
F0.05105979294341454
ssS'MENDELSOHN JOHN'
p89
(dp90
g3
F-0.9560994455950618
sg4
F0.09036201550338599
sg5
F-0.5680599172023625
sg6
F-0.47130134359101367
sg7
F-0.23083186390141938
sg8
F-0.24568862943260034
sg9
F-0.5539744766422853
sg10
F-0.44367314795136004
sg11
F-0.7681623921381543
sg12
F-0.5933960162336667
sg13
F-0.41232914456224135
sg14
F0.081526768000536
sg15
F-0.24349395389431658
sg16
F0.03321428812769949
sg17
F-0.16751571639684631
sg18
I00
sg19
F0.11942581876799625
sg20
F-0.001498879687102719
sg21
F-0.3972238125018185
sg22
F0.05105979294341454
ssS'HICKERSON GARY J'
p91
(dp92
g3
F0.20701568600744125
sg4
F-0.33082096782980275
sg5
F0.8163183432539045
sg6
F-0.5683544904419332
sg7
F0.0028455569845856838
sg8
F0.4322149671745055
sg9
F1.0782971379707584
sg10
F-0.37233187560326525
sg11
F1.3866254442078707
sg12
F1.916459240479236
sg13
F-0.41232914456224135
sg14
F-0.3983692743161302
sg15
F-0.24147308285540675
sg16
F-0.515118158796272
sg17
F-0.13117576233462086
sg18
I00
sg19
F0.309651006712694
sg20
F-0.1998255971145115
sg21
F-0.1760590902668411
sg22
F-0.3214992514759104
ssS'CLINE KENNETH W'
p93
(dp94
g3
F-0.9560994455950618
sg4
F0.09036201550338599
sg5
F-0.5680599172023625
sg6
F-0.47130134359101367
sg7
F-0.23084847778536668
sg8
F-0.24568862943260034
sg9
F-0.5539744766422853
sg10
F-0.41302119179472696
sg11
F-0.7713934495720123
sg12
F-0.5933960162336667
sg13
F-0.41232914456224135
sg14
F0.081526768000536
sg15
F-0.24349395389431658
sg16
F0.03321428812769949
sg17
F-0.16751571639684631
sg18
I00
sg19
F0.309651006712694
sg20
F-0.001498879687102719
sg21
F-0.06525511116318193
sg22
F0.05105979294341454
ssS'RICE KENNETH D'
p95
(dp96
g3
F1.353984678608153
sg4
F-0.5852062270066235
sg5
F5.306126061976665
sg6
F0.476030722542161
sg7
F-0.1741535988152061
sg8
F1.6300754843765992
sg9
F1.126305126635848
sg10
F3.202275611993297
sg11
F0.2535940269119734
sg12
F0.7074704363317852
sg13
F3.6946636715030134
sg14
F-0.40509926404541796
sg15
F-0.06099030122285255
sg16
F-0.4684883129161232
sg17
F0.3748358986361356
sg18
I01
sg19
F-6.115625961776633
sg20
F-0.24486351997869965
sg21
F0.98080083669158
sg22
F-0.2812225980251726
ssS'HAYES ROBERT E'
p97
(dp98
g3
F-0.9560994455950618
sg4
F-0.8310098147895275
sg5
F-0.5680599172023625
sg6
F-0.777231533038752
sg7
F-0.22995480798736362
sg8
F-2.125293652153075
sg9
F-0.5539744766422853
sg10
F-0.41918334805200974
sg11
F-0.7713934495720123
sg12
F-0.5933960162336667
sg13
F-0.41232914456224135
sg14
F-0.40958592386494314
sg15
F-0.24349395389431658
sg16
F-0.5306614407563215
sg17
F-0.08583960223378591
sg18
I00
sg19
F0.309651006712694
sg20
F-1.2632209980745093
sg21
F-0.32130310609918544
sg22
F-0.8048190928847644
ssS'KOPPER MICHAEL J'
p99
(dp100
g3
F0.27575759821336665
sg4
F0.34170185161184413
sg5
F-0.05677818475417409
sg6
F0.4754346406132284
sg7
F0.0669230622498687
sg8
F0.6772917136919027
sg9
F0.21415334199914698
sg10
F-0.28435763345204806
sg11
F1.8076453267210477
sg12
F0.521802381134858
sg13
F-0.41232914456224135
sg14
F-0.19395918944323917
sg15
F0.7037914332713555
sg16
F0.5062975128641292
sg17
F0.18778100445989732
sg18
I01
sg19
F0.309651006712694
sg20
F0.9048545664709919
sg21
F0.09666941861468276
sg22
F0.8422083428686221
ssS'LEFF DANIEL P'
p101
(dp102
g3
F0.5472818357601557
sg4
F0.5898697774318475
sg5
F0.06825577109123226
sg6
F0.476030722542161
sg7
F0.0682270276277865
sg8
F1.5956164367478094
sg9
F0.4061852966595051
sg10
F-0.3853626526462248
sg11
F-0.7713934495720123
sg12
F0.5488333520573172
sg13
F-0.41232914456224135
sg14
F-0.37144931539897913
sg15
F-0.24027580027192041
sg16
F-0.3130554933156274
sg17
F-0.3373090969390908
sg18
I00
sg19
F0.309651006712694
sg20
F2.01704105053386
sg21
F-0.21645573712155675
sg22
F0.22223557010905032
ssS'CHRISTODOULOU DIOMEDES'
p103
(dp104
g3
F-0.9560994455950618
sg4
F0.09036201550338599
sg5
F-0.5680599172023625
sg6
F-0.47130134359101367
sg7
F-0.23084847778536668
sg8
F-0.24568862943260034
sg9
F-0.5539744766422853
sg10
F0.5393419986049455
sg11
F-0.7713934495720123
sg12
F-0.5933960162336667
sg13
F0.6514782003689343
sg14
F0.081526768000536
sg15
F-0.24349395389431658
sg16
F0.03321428812769949
sg17
F-0.16751571639684631
sg18
I00
sg19
F0.309651006712694
sg20
F-0.001498879687102719
sg21
F0.07947045897300793
sg22
F0.05105979294341454
ssS'BERBERIAN DAVID'
p105
(dp106
g3
F0.2333437779715865
sg4
F0.09036201550338599
sg5
F-0.5680599172023625
sg6
F-0.47130134359101367
sg7
F-0.20520090669769522
sg8
F-0.24568862943260034
sg9
F-0.5539744766422853
sg10
F-0.0403647112673576
sg11
F-0.511773618467698
sg12
F-0.5933960162336667
sg13
F-0.07529147047655015
sg14
F0.081526768000536
sg15
F-0.24349395389431658
sg16
F0.03321428812769949
sg17
F-0.16751571639684631
sg18
I00
sg19
F0.309651006712694
sg20
F-0.001498879687102719
sg21
F0.038601495052743406
sg22
F0.05105979294341454
ssS'DETMERING TIMOTHY J'
p107
(dp108
g3
F0.1999421393971327
sg4
F0.09036201550338599
sg5
F0.030070955702371872
sg6
F-0.47130134359101367
sg7
F-0.09562684152259476
sg8
F-0.24568862943260034
sg9
F-0.1459065729890244
sg10
F-0.11569359418036859
sg11
F0.3694099707404621
sg12
F0.03790710147264244
sg13
F0.008422262705309285
sg14
F0.081526768000536
sg15
F-0.24234051252138508
sg16
F0.03321428812769949
sg17
F-0.16751571639684631
sg18
I00
sg19
F-1.1117501010216235
sg20
F-0.001498879687102719
sg21
F-0.23924929741863962
sg22
F0.05105979294341454
ssS'WAKEHAM JOHN'
p109
(dp110
g3
F-0.9560994455950618
sg4
F0.09036201550338599
sg5
F-0.5680599172023625
sg6
F-0.47130134359101367
sg7
F-0.2069299854439132
sg8
F-0.24568862943260034
sg9
F-0.5539744766422853
sg10
F-0.44367314795136004
sg11
F1.4941235982910899
sg12
F-0.5933960162336667
sg13
F-0.41232914456224135
sg14
F0.081526768000536
sg15
F-0.24349395389431658
sg16
F0.03321428812769949
sg17
F-0.16751571639684631
sg18
I00
sg19
F0.309651006712694
sg20
F-0.001498879687102719
sg21
F-0.3972238125018185
sg22
F0.05105979294341454
ssS'POWERS WILLIAM'
p111
(dp112
g3
F-0.9560994455950618
sg4
F-0.7396763120971268
sg5
F-0.5680599172023625
sg6
F-0.777231533038752
sg7
F-0.23084847778536668
sg8
F-2.4801138851358195
sg9
F-0.5539744766422853
sg10
F-0.44367314795136004
sg11
F-0.7713934495720123
sg12
F-0.5933960162336667
sg13
F-0.41232914456224135
sg14
F-0.3991170509527177
sg15
F-0.24349395389431658
sg16
F-0.5306614407563215
sg17
F-1.0832351244521563
sg18
I00
sg19
F0.2775648304328655
sg20
F-1.3107610277644857
sg21
F-0.3972238125018185
sg22
F-1.1270323204906671
ssS'GOLD JOSEPH'
p113
(dp114
g3
F0.5425258642038457
sg4
F0.09036201550338599
sg5
F0.02415412330643786
sg6
F-0.47130134359101367
sg7
F0.010162064511836762
sg8
F-0.24568862943260034
sg9
F0.16614535333405747
sg10
F-0.30173151763350675
sg11
F-0.7713934495720123
sg12
F0.2659947067549647
sg13
F-0.32175886471452225
sg14
F0.081526768000536
sg15
F0.611710277369294
sg16
F0.03321428812769949
sg17
F-0.16751571639684631
sg18
I00
sg19
F0.309651006712694
sg20
F-0.001498879687102719
sg21
F-0.1760590902668411
sg22
F0.05105979294341454
ssS'BANNANTINE JAMES M'
p115
(dp116
g3
F-0.9534798169202814
sg4
F-0.7930052700450386
sg5
F-0.5680599172023625
sg6
F-0.777231533038752
sg7
F-0.12799989244168936
sg8
F1.0456208568586491
sg9
F-0.5539744766422853
sg10
F0.4043894826793746
sg11
F0.4577400949120107
sg12
F-0.5933960162336667
sg13
F0.42718741683383327
sg14
F-0.39687372104295515
sg15
F0.6589283049752267
sg16
F-0.5306614407563215
sg17
F1.0816065699741126
sg18
I00
sg19
F0.3002928442137086
sg20
F-0.7440338317234515
sg21
F0.4840095242174647
sg22
F-0.3416375782012793
ssS'DUNCAN JOHN H'
p117
(dp118
g3
F-0.9560994455950618
sg4
F0.09036201550338599
sg5
F-0.5680599172023625
sg6
F-0.47130134359101367
sg7
F-0.2221495379553386
sg8
F-0.24568862943260034
sg9
F-0.5539744766422853
sg10
F-0.3835476469370588
sg11
F-0.7713934495720123
sg12
F-0.5933960162336667
sg13
F-0.33519662555742
sg14
F0.081526768000536
sg15
F-0.24349395389431658
sg16
F0.03321428812769949
sg17
F-0.16751571639684631
sg18
I00
sg19
F0.2638136120272247
sg20
F-0.001498879687102719
sg21
F-0.3972238125018185
sg22
F0.05105979294341454
ssS'SHAPIRO RICHARD S'
p119
(dp120
g3
F0.521634737413773
sg4
F8.146031439775632
sg5
F0.47391505493525565
sg6
F-0.47552024928779146
sg7
F-0.11213239845631927
sg8
F-1.248992680516983
sg9
F0.07012937600387843
sg10
F-0.28403917451056276
sg11
F2.2362625604976203
sg12
F0.161938790378292
sg13
F-0.28621213325266887
sg14
F0.4899893699498546
sg15
F-0.24275804786000282
sg16
F0.4796518866469014
sg17
F-0.9297643367901971
sg18
I00
sg19
F0.309651006712694
sg20
F4.337745131452444
sg21
F-0.20711168103496555
sg22
F0.36320385718663273
ssS'SHERRIFF JOHN R'
p121
(dp122
g3
F1.3987105820199175
sg4
F0.8136062102018224
sg5
F0.01849314572686119
sg6
F0.6326885044897752
sg7
F0.25582471882622937
sg8
F0.33586053845172653
sg9
F0.8862651833104003
sg10
F0.06239708853749123
sg11
F-0.7713934495720123
sg12
F0.5004541656271372
sg13
F-0.031478539802451765
sg14
F-0.3497637929379408
sg15
F1.6898888178382387
sg16
F-0.17316595567518112
sg17
F-0.807206617832576
sg18
I00
sg19
F0.309651006712694
sg20
F1.3051916585971088
sg21
F0.25129659959000133
sg22
F-0.5631591721803374
ssS'SHELBY REX'
p123
(dp124
g3
F0.20732323151223728
sg4
F-1.0020302661397276
sg5
F-0.3988595814953666
sg6
F1.2472690336688768
sg7
F-0.005900418097968879
sg8
F-0.7853808391589867
sg9
F-0.3619425219819272
sg10
F-0.0403647112673576
sg11
F-0.27180210959630347
sg12
F-0.2981969823670632
sg13
F-0.07529147047655015
sg14
F-0.3893959546770798
sg15
F1.398801968844194
sg16
F-0.3130554933156274
sg17
F0.7320247259852779
sg18
I01
sg19
F0.30201082976652
sg20
F-1.2119278081458504
sg21
F0.038601495052743406
sg22
F-0.8652340730608712
ssS'LEMAISTRE CHARLES'
p125
(dp126
g3
F-0.9560994455950618
sg4
F0.09036201550338599
sg5
F-0.5680599172023625
sg6
F-0.47130134359101367
sg7
F-0.2210269782291697
sg8
F-0.24568862943260034
sg9
F-0.5539744766422853
sg10
F-0.3768957529068875
sg11
F-0.7713934495720123
sg12
F-0.5933960162336667
sg13
F-0.32666318576823294
sg14
F0.081526768000536
sg15
F-0.24349395389431658
sg16
F0.03321428812769949
sg17
F-0.16751571639684631
sg18
I00
sg19
F0.2638136120272247
sg20
F-0.001498879687102719
sg21
F-0.3972238125018185
sg22
F0.05105979294341454
ssS'DEFFNER JOSEPH M'
p127
(dp128
g3
F0.17589317929888654
sg4
F-0.7022847438807748
sg5
F0.2735194364020673
sg6
F-0.4723839573569083
sg7
F-0.09517040873793449
sg8
F0.8329580770032166
sg9
F0.02212138733878891
sg10
F-0.41792293640599915
sg11
F0.13736328516967863
sg12
F0.31678990558560555
sg13
F-0.40872347162272343
sg14
F-0.3632237723965163
sg15
F-0.21682075262506934
sg16
F-0.4684883129161232
sg17
F3.977080392685165
sg18
I00
sg19
F0.309651006712694
sg20
F-0.6351921848016635
sg21
F-0.3261090074508691
sg22
F1.1888752529267583
ssS'KISHKILL JOSEPH G'
p129
(dp130
g3
F0.0008393763457929532
sg4
F0.09036201550338599
sg5
F-0.5680599172023625
sg6
F-0.47130134359101367
sg7
F-0.15171969171161095
sg8
F-0.24568862943260034
sg9
F-0.5539744766422853
sg10
F-0.27638176537667686
sg11
F1.7683705137243557
sg12
F-0.5933960162336667
sg13
F-0.41232914456224135
sg14
F0.081526768000536
sg15
F0.24226352753851296
sg16
F0.03321428812769949
sg17
F-0.16751571639684631
sg18
I00
sg19
F0.21606571473126499
sg20
F-0.001498879687102719
sg21
F0.12139536741561423
sg22
F0.05105979294341454
ssS'MCCARTY DANNY J'
p131
(dp132
g3
F-0.9560994455950618
sg4
F-0.26155462015033104
sg5
F-0.5680599172023625
sg6
F-0.724769392107458
sg7
F-0.23084847778536668
sg8
F-1.0046188685283775
sg9
F-0.5539744766422853
sg10
F-0.3209263917703656
sg11
F-0.7713934495720123
sg12
F-0.5933960162336667
sg13
F-0.2744813508464965
sg14
F-0.2577872666376747
sg15
F-0.24349395389431658
sg16
F-0.49957487683622237
sg17
F-0.5351199997159618
sg18
I00
sg19
F0.309651006712694
sg20
F-0.6902385349690046
sg21
F-0.3498136082024131
sg22
F-0.6235741523564442
ssS'MCCONNELL MICHAEL S'
p133
(dp134
g3
F1.048646911185844
sg4
F0.9006488771972647
sg5
F0.31937276031099276
sg6
F-0.3782169637017217
sg7
F0.005042181856752999
sg8
F0.32570536632472924
sg9
F0.5022012739896841
sg10
F0.057916505471992404
sg11
F1.0049022061605333
sg12
F0.3488313483623535
sg13
F-0.07557904457565084
sg14
F1.6318442940190119
sg15
F-0.24293028118718263
sg16
F2.4847352594932977
sg17
F-0.21497071370152923
sg18
I00
sg19
F0.309651006712694
sg20
F1.4127822521060027
sg21
F0.343977542245397
sg22
F0.7256937382432732
ssS'DELAINEY DAVID W'
p135
(dp136
g3
F1.0493333966876208
sg4
F0.7559864165569522
sg5
F0.5031053555954325
sg6
F0.3418838828685442
sg7
F0.3021405228242049
sg8
F0.4153775407166383
sg9
F2.326504843263086
sg10
F0.1408843595710329
sg11
F1.1099115727609161
sg12
F1.9754353329352001
sg13
F0.06304225292180209
sg14
F1.876367254183134
sg15
F-0.24176013840070645
sg16
F8.935197272913875
sg17
F-0.4128228093238045
sg18
I01
sg19
F0.309651006712694
sg20
F1.297685338119744
sg21
F0.2662001584608877
sg22
F0.2020972433836814
ssS'SULLIVAN-SHAKLOVITZ COLLEEN'
p137
(dp138
g3
F-0.06213605764520702
sg4
F0.09036201550338599
sg5
F-0.39842166280742536
sg6
F-0.47130134359101367
sg7
F-0.11866479801484137
sg8
F-0.24568862943260034
sg9
F-0.4579584993121063
sg10
F-0.22332754083808848
sg11
F-0.7713934495720123
sg12
F-0.4013069134303667
sg13
F-0.12965687669622003
sg14
F0.081526768000536
sg15
F-0.24332485208217638
sg16
F0.03321428812769949
sg17
F-0.16751571639684631
sg18
I00
sg19
F0.309651006712694
sg20
F-0.001498879687102719
sg21
F-0.3972238125018185
sg22
F0.05105979294341454
ssS'WROBEL BRUCE'
p139
(dp140
g3
F-0.9560994455950618
sg4
F0.09036201550338599
sg5
F-0.5680599172023625
sg6
F-0.47130134359101367
sg7
F-0.23084847778536668
sg8
F-0.24568862943260034
sg9
F-0.5539744766422853
sg10
F-0.421170764747272
sg11
F-0.7713934495720123
sg12
F-0.5933960162336667
sg13
F-0.3834617676445795
sg14
F0.081526768000536
sg15
F-0.24349395389431658
sg16
F0.03321428812769949
sg17
F-0.16751571639684631
sg18
I00
sg19
F0.309651006712694
sg20
F-0.001498879687102719
sg21
F-0.3972238125018185
sg22
F0.05105979294341454
ssS'LINDHOLM TOD A'
p141
(dp142
g3
F0.3424949727541037
sg4
F0.09036201550338599
sg5
F-0.18095833844270973
sg6
F-0.47130134359101367
sg7
F-0.13252470618593098
sg8
F-0.24568862943260034
sg9
F-0.3619425219819272
sg10
F0.05192077595457165
sg11
F0.48887176991661485
sg12
F-0.3289244880892821
sg13
F0.11662481853836452
sg14
F0.081526768000536
sg15
F-0.240748659042905
sg16
F0.03321428812769949
sg17
F-0.16751571639684631
sg18
I00
sg19
F0.309651006712694
sg20
F-0.001498879687102719
sg21
F-0.13908047466037038
sg22
F0.05105979294341454
ssS'MEYER JEROME J'
p143
(dp144
g3
F-0.9560994455950618
sg4
F0.09036201550338599
sg5
F-0.5680599172023625
sg6
F-0.47130134359101367
sg7
F-0.23060701518826773
sg8
F-0.24568862943260034
sg9
F-0.5539744766422853
sg10
F-0.44367314795136004
sg11
F-0.7244339594353338
sg12
F-0.5933960162336667
sg13
F-0.41232914456224135
sg14
F0.081526768000536
sg15
F-0.24349395389431658
sg16
F0.03321428812769949
sg17
F-0.16751571639684631
sg18
I00
sg19
F0.23934377724833372
sg20
F-0.001498879687102719
sg21
F-0.3972238125018185
sg22
F0.05105979294341454
ssS'LAY KENNETH L'
p145
(dp146
g3
F4.93296311241166
sg4
F1.4792987197585152
sg5
F-0.4534688179797378
sg6
F1.7292929781230741
sg7
F11.394356809433491
sg8
F-0.08391895298337201
sg9
F6.167143936470247
sg10
F7.499213320377934
sg11
F1.4080857783800487
sg12
F1.447751219123363
sg13
F6.714442561328545
sg14
F-0.39163928458684244
sg15
F10.570388436113022
sg16
F-0.2819689293955282
sg17
F-0.17885671330423297
sg18
I01
sg19
F-0.2403977295129381
sg20
F1.6905161097684962
sg21
F7.004262379229079
sg22
F1.3499818667297097
ssS'BUTTS ROBERT H'
p147
(dp148
g3
F0.48011609426630986
sg4
F0.09036201550338599
sg5
F0.4318500808892277
sg6
F-0.47130134359101367
sg7
F-0.08810580361323571
sg8
F-0.24568862943260034
sg9
F0.16614535333405747
sg10
F-0.3761289607069983
sg11
F-0.5659593248922613
sg12
F0.30333894640394543
sg13
F-0.41232914456224135
sg14
F0.081526768000536
sg15
F-0.08623344395733407
sg16
F0.03321428812769949
sg17
F-0.16751571639684631
sg18
I00
sg19
F0.172138822656286
sg20
F-0.001498879687102719
sg21
F-0.18783041483997384
sg22
F0.05105979294341454
ssS'OLSON CINDY K'
p149
(dp150
g3
F0.8511587620346834
sg4
F-0.4141857756564235
sg5
F0.3940382406472804
sg6
F0.8495992794941639
sg7
F-0.0824958113817066
sg8
F0.6128733870921985
sg9
F0.16614535333405747
sg10
F-0.02206472454707475
sg11
F0.6212577988281993
sg12
F0.11923302760742191
sg13
F-0.0726692760577662
sg14
F-0.37967485840144194
sg15
F-0.24247934302147547
sg16
F-0.29751221135557776
sg17
F-0.5525263584069086
sg18
I00
sg19
F0.309651006712694
sg20
F-0.2548719472818526
sg21
F0.08899652259122785
sg22
F-0.7242657859832887
ssS'MCDONALD REBECCA'
p151
(dp152
g3
F-0.9560994455950618
sg4
F-0.5919489688161297
sg5
F-0.5680599172023625
sg6
F-0.34340998302997444
sg7
F-0.23084847778536668
sg8
F0.9745702556582525
sg9
F-0.5539744766422853
sg10
F-0.1701177258974133
sg11
F-0.7713934495720123
sg12
F-0.5933960162336667
sg13
F-0.255200607171871
sg14
F-0.4088381472283556
sg15
F-0.24349395389431658
sg16
F-0.515118158796272
sg17
F0.8144939396344748
sg18
I00
sg19
F0.309651006712694
sg20
F-0.4250152114354522
sg21
F0.07111465865732632
sg22
F-0.03956267732074559
ssS'CUMBERLAND MICHAEL S'
p153
(dp154
g3
F0.05934441674922216
sg4
F0.09036201550338599
sg5
F0.11386988332773677
sg6
F-0.47130134359101367
sg7
F-0.14015059117371423
sg8
F-0.24568862943260034
sg9
F-0.24192255031920346
sg10
F-0.4100416841156807
sg11
F-0.2835911029360554
sg12
F-0.04379199343224697
sg13
F-0.41232914456224135
sg14
F0.081526768000536
sg15
F-0.24274969715323047
sg16
F0.03321428812769949
sg17
F-0.16751571639684631
sg18
I00
sg19
F0.309651006712694
sg20
F-0.001498879687102719
sg21
F-0.29296307936993515
sg22
F0.05105979294341454
ssS'GAHN ROBERT S'
p155
(dp156
g3
F0.09838622020627447
sg4
F0.09036201550338599
sg5
F0.39173571543850705
sg6
F-0.47130134359101367
sg7
F-0.12975243268618428
sg8
F-0.24568862943260034
sg9
F-0.06441781302890145
sg10
F-0.3921428036294677
sg11
F0.32192652534423916
sg12
F0.23691584076671296
sg13
F-0.3950587222773609
sg14
F0.081526768000536
sg15
F-0.1635912599813878
sg16
F0.03321428812769949
sg17
F-0.16751571639684631
sg18
I00
sg19
F0.30774050410220366
sg20
F-0.001498879687102719
sg21
F-0.2792097278752369
sg22
F0.05105979294341454
ssS'MCCLELLAN GEORGE'
p157
(dp158
g3
F0.49053419824127514
sg4
F-0.07091891989974966
sg5
F0.5889038937568172
sg6
F-0.777231533038752
sg7
F-0.0828094545691982
sg8
F1.136759304169004
sg9
F0.310169319329326
sg10
F-0.2903695366079394
sg11
F4.222838927060704
sg12
F0.4749364069457713
sg13
F-0.30718304908550087
sg14
F-0.38191818831120455
sg15
F-0.18964546511113425
sg16
F-0.5306614407563215
sg17
F-0.14646111906586565
sg18
I00
sg19
F0.0804640332853473
sg20
F0.5120237948222399
sg21
F-0.1760590902668411
sg22
F-0.07983933077148342
ssS'HERMANN ROBERT J'
p159
(dp160
g3
F0.4864152852306141
sg4
F0.09036201550338599
sg5
F0.3465749361872555
sg6
F-0.47130134359101367
sg7
F-0.08520073129788319
sg8
F-0.24568862943260034
sg9
F0.11813736466896795
sg10
F-0.335611893765248
sg11
F0.2843109040027715
sg12
F0.2399018005754331
sg13
F-0.3734257220648533
sg14
F0.081526768000536
sg15
F0.19120313097895053
sg16
F0.03321428812769949
sg17
F-0.16751571639684631
sg18
I00
sg19
F-0.20372781376456264
sg20
F-0.001498879687102719
sg21
F-0.15623581266223333
sg22
F0.05105979294341454
ssS'SCRIMSHAW MATTHEW'
p161
(dp162
g3
F-0.9560994455950618
sg4
F0.09036201550338599
sg5
F-0.5680599172023625
sg6
F-0.47130134359101367
sg7
F-0.23084847778536668
sg8
F-0.24568862943260034
sg9
F-0.5539744766422853
sg10
F-0.3208251447935399
sg11
F-0.7713934495720123
sg12
F-0.5933960162336667
sg13
F-0.25473252119238243
sg14
F0.081526768000536
sg15
F-0.24349395389431658
sg16
F0.03321428812769949
sg17
F-0.16751571639684631
sg18
I00
sg19
F0.309651006712694
sg20
F-0.001498879687102719
sg21
F-0.3972238125018185
sg22
F0.05105979294341454
ssS'GATHMANN WILLIAM D'
p163
(dp164
g3
F-0.9560994455950618
sg4
F0.09036201550338599
sg5
F-0.5680599172023625
sg6
F-0.47130134359101367
sg7
F-0.23084847778536668
sg8
F-0.24568862943260034
sg9
F-0.5539744766422853
sg10
F-0.1290376546005029
sg11
F-0.7713934495720123
sg12
F-0.5933960162336667
sg13
F-0.04844914637795235
sg14
F0.081526768000536
sg15
F-0.24349395389431658
sg16
F0.03321428812769949
sg17
F-0.16751571639684631
sg18
I00
sg19
F0.309651006712694
sg20
F-0.001498879687102719
sg21
F-0.2648481804139667
sg22
F0.05105979294341454
ssS'HAEDICKE MARK E'
p165
(dp166
g3
F1.098551661223013
sg4
F1.317472916330369
sg5
F-0.0628640771142252
sg6
F-0.5999927441892102
sg7
F0.20235461718143422
sg8
F-0.5383753414382211
sg9
F0.5502092626547737
sg10
F-0.3137836278126128
sg11
F0.8914877239382903
sg12
F0.3677341641873456
sg13
F-0.28602269952072157
sg14
F1.0328752081124009
sg15
F-0.1888156136256315
sg16
F0.4174787588067031
sg17
F0.3273991012844765
sg18
I00
sg19
F-1.4037214706975514
sg20
F0.9849219848962153
sg21
F-0.13440644102443974
sg22
F2.497866490075738
ssS'BOWEN JR RAYMOND M'
p167
(dp168
g3
F0.573944932649168
sg4
F-0.0010395956921410516
sg5
F0.2892411877047753
sg6
F2.355924105913531
sg7
F0.06882883189698566
sg8
F1.2028554952529464
sg9
F0.7422412173151317
sg10
F-0.4029066835043938
sg11
F0.6674531875447086
sg12
F0.9217420230427464
sg13
F-0.41232914456224135
sg14
F-0.3983692743161302
sg15
F-0.24180189193456822
sg16
F-0.29751221135557776
sg17
F1.2841030095537715
sg18
I01
sg19
F0.3081237047217742
sg20
F0.6671544180211102
sg21
F-0.27084389959638017
sg22
F1.6923334210609813
ssS'GILLIS JOHN'
p169
(dp170
g3
F-0.9560994455950618
sg4
F0.09036201550338599
sg5
F-0.5680599172023625
sg6
F-0.47130134359101367
sg7
F-0.23084847778536668
sg8
F-0.24568862943260034
sg9
F-0.5539744766422853
sg10
F-0.42982188222878903
sg11
F-0.7713934495720123
sg12
F-0.5933960162336667
sg13
F-0.4102951698916179
sg14
F0.081526768000536
sg15
F-0.24349395389431658
sg16
F0.03321428812769949
sg17
F-0.16751571639684631
sg18
I00
sg19
F0.309651006712694
sg20
F-0.001498879687102719
sg21
F-0.3591987789380223
sg22
F0.05105979294341454
ssS'FITZGERALD JAY L'
p171
(dp172
g3
F0.13764769902389537
sg4
F-0.5662039546343791
sg5
F-0.1486878352485865
sg6
F2.0426085420183027
sg7
F-0.07202232913655071
sg8
F0.8300022687422227
sg9
F-0.21791855598665869
sg10
F-0.18146029855681597
sg11
F-0.25027628101668237
sg12
F-0.043888581253905504
sg13
F-0.2744635071433777
sg14
F-0.40659481731859304
sg15
F0.05443212394628668
sg16
F-0.40631518507592485
sg17
F-1.0496689289928842
sg18
I00
sg19
F0.309651006712694
sg20
F-0.42126205119676985
sg21
F0.08250141084269262
sg22
F-1.1068939937652982
ssS'MORAN MICHAEL P'
p173
(dp174
g3
F-0.9560994455950618
sg4
F-0.7280297580625253
sg5
F-0.5680599172023625
sg6
F-0.777231533038752
sg7
F-0.23084847778536668
sg8
F-1.7311760313263556
sg9
F-0.5539744766422853
sg10
F-0.40790660210118224
sg11
F-0.7713934495720123
sg12
F-0.5933960162336667
sg13
F-0.39997569991119075
sg14
F-0.4043514874088304
sg15
F-0.24349395389431658
sg16
F-0.5306614407563215
sg17
F-1.0832351244521563
sg18
I00
sg19
F0.309651006712694
sg20
F-1.1668898852816623
sg21
F-0.3161968672504065
sg22
F-1.1270323204906671
ssS'REDMOND BRIAN L'
p175
(dp176
g3
F-0.4242653976585102
sg4
F-0.11566620645374465
sg5
F-0.5680599172023625
sg6
F0.47319528757478335
sg7
F-0.21832868141537748
sg8
F0.23172651141833486
sg9
F-0.5539744766422853
sg10
F0.8324793299643515
sg11
F-0.45071099926161257
sg12
F-0.5933960162336667
sg13
F1.1456832115250333
sg14
F-0.25330060681814953
sg15
F-0.24349395389431658
sg16
F0.23095937528610808
sg17
F2.7523505283157963
sg18
I00
sg19
F0.309651006712694
sg20
F0.004096109187229232
sg21
F-0.2060482155402424
sg22
F2.981186331484592
ssS'BAZELIDES PHILIP J'
p177
(dp178
g3
F-0.5122563633342581
sg4
F0.09036201550338599
sg5
F-0.5680599172023625
sg6
F-0.47130134359101367
sg7
F-0.13429307452256486
sg8
F-0.24568862943260034
sg9
F-0.5539744766422853
sg10
F-0.1849529957845331
sg11
F-0.7713934495720123
sg12
F-0.5933960162336667
sg13
F-0.08042775967080529
sg14
F0.081526768000536
sg15
F-0.24258163917943684
sg16
F0.03321428812769949
sg17
F-0.16751571639684631
sg18
I00
sg19
F0.309651006712694
sg20
F-0.001498879687102719
sg21
F-0.3972238125018185
sg22
F0.05105979294341454
ssS'BELDEN TIMOTHY N'
p179
(dp180
g3
F0.21915824156286995
sg4
F3.758345451371575
sg5
F1.0496917656739906
sg6
F0.4812094921933219
sg7
F0.3867423488428971
sg8
F0.4720916395298478
sg9
F4.486863373032341
sg10
F-0.2640317367769431
sg11
F-0.3925083025138744
sg12
F7.077543898173613
sg13
F-0.2145677978663991
sg14
F-0.05663535139562932
sg15
F-0.02355930195411944
sg16
F1.1480130109290336
sg17
F-0.18681482153983792
sg18
I01
sg19
F-3.9705238982944637
sg20
F5.581292223869194
sg21
F-0.31821900602467257
sg22
F3.464506172893446
ssS'DURAN WILLIAM D'
p181
(dp182
g3
F0.20099658112786192
sg4
F-0.5858192035347605
sg5
F0.039349450465866805
sg6
F0.6326885044897752
sg7
F0.004132796222583568
sg8
F0.34789895518412584
sg9
F0.16614535333405747
sg10
F-0.1782782969241183
sg11
F-0.20846901759885847
sg12
F0.5196530814498608
sg13
F-0.11108822126698674
sg14
F-0.40958592386494314
sg15
F-0.24185721536693508
sg16
F-0.4840315948761728
sg17
F2.6007290886973338
sg18
I00
sg19
F0.309651006712694
sg20
F-0.5763926743956401
sg21
F-0.3024390031722794
sg22
F1.007630312398438
ssS'THORN TERENCE H'
p183
(dp184
g3
F0.26360955077392373
sg4
F-0.976898228486114
sg5
F-0.5680599172023625
sg6
F-0.777231533038752
sg7
F-0.1285324347757839
sg8
F-1.3560824073176752
sg9
F-0.5539744766422853
sg10
F0.33553975933766933
sg11
F0.236019694248084
sg12
F-0.5933960162336667
sg13
F0.511492482037653
sg14
F-0.3879004014039048
sg15
F0.20183775605354418
sg16
F-0.5306614407563215
sg17
F-1.0832351244521563
sg18
I00
sg19
F0.309651006712694
sg20
F-1.2344467695779446
sg21
F-0.2140530371447943
sg22
F-1.1270323204906671
ssS'FASTOW ANDREW S'
p185
(dp186
g3
F1.4641628557013284
sg4
F0.34170185161184413
sg5
F0.3410991733355389
sg6
F0.4754346406132284
sg7
F0.041269317083703315
sg8
F0.6772917136919027
sg9
F0.6942332286500422
sg10
F-0.15345143839904157
sg11
F0.449444136635889
sg12
F0.3289701775040829
sg13
F-0.41232914456224135
sg14
F-0.19395918944323917
sg15
F0.04613360909125926
sg16
F0.5062975128641292
sg17
F0.18778100445989732
sg18
I01
sg19
F-2.2316749969180343
sg20
F0.9048545664709919
sg21
F0.5024910603492393
sg22
F0.8422083428686221
ssS'FOY JOE'
p187
(dp188
g3
F-0.9560994455950618
sg4
F-1.1050103228667296
sg5
F-0.5680599172023625
sg6
F-0.777231533038752
sg7
F-0.21044539348238372
sg8
F-2.4067571231476728
sg9
F-0.5539744766422853
sg10
F-0.3881273744063821
sg11
F-0.7713934495720123
sg12
F-0.5933960162336667
sg13
F-0.3410717685517456
sg14
F-0.4088381472283556
sg15
F-0.24349395389431658
sg16
F-0.5306614407563215
sg17
F-1.0832351244521563
sg18
I00
sg19
F0.309651006712694
sg20
F-1.3232715618934268
sg21
F-0.3972238125018185
sg22
F-1.1270323204906671
ssS'CALGER CHRISTOPHER F'
p189
(dp190
g3
F0.36299068389515293
sg4
F0.452563035129178
sg5
F0.7246360323350515
sg6
F0.2018796041338363
sg7
F-0.046827598642415785
sg8
F1.1361876884150248
sg9
F0.6462252399849526
sg10
F-0.42328999659606925
sg11
F0.010566112359902527
sg12
F1.0338679334693988
sg13
F-0.41232914456224135
sg14
F-0.31087940783538925
sg15
F-0.24298664845789603
sg16
F-0.14207939175508194
sg17
F1.3232982978056786
sg18
I01
sg19
F-0.1716416374847341
sg20
F1.4115311986931085
sg21
F-0.3340341067481787
sg22
F2.8804946978577473
ssS'LEWIS RICHARD'
p191
(dp192
g3
F-0.9560994455950618
sg4
F-0.5563963301841884
sg5
F-0.5680599172023625
sg6
F-0.777231533038752
sg7
F-0.23084847778536668
sg8
F0.8467912596646678
sg9
F-0.5539744766422853
sg10
F-0.3061200726961081
sg11
F-0.7713934495720123
sg12
F-0.5933960162336667
sg13
F-0.23586799226724897
sg14
F-0.3991170509527177
sg15
F-0.24349395389431658
sg16
F-0.5306614407563215
sg17
F-0.7532145472475484
sg18
I00
sg19
F0.309651006712694
sg20
F-0.401245196590464
sg21
F-0.3972238125018185
sg22
F-0.9256490532369779
ssS'KAMINSKI WINCENTY J'
p193
(dp194
g3
F0.5547233385994166
sg4
F1.6840328801562456
sg5
F0.055884623284458174
sg6
F-0.7101111749047381
sg7
F-0.10884632936990503
sg8
F-2.0052775114240533
sg9
F-0.16991056732156917
sg10
F-0.2858124522324748
sg11
F1.0533898991375499
sg12
F-0.13875467265122432
sg13
F-0.23596488772488247
sg14
F10.325495470985627
sg15
F-0.2386202726543011
sg16
F2.1272397744121574
sg17
F-0.8036309749090643
sg18
I00
sg19
F0.309651006712694
sg20
F-0.5964095290019459
sg21
F-0.3340341067481787
sg22
F-0.3013609247505415
ssS'COX DAVID'
p195
(dp196
g3
F0.769933797464448
sg4
F-1.0774263791005685
sg5
F0.663318944723266
sg6
F-0.09363393908552671
sg7
F-0.1072105353369317
sg8
F0.4948136119455176
sg9
F0.21415334199914698
sg10
F-0.36351125839057674
sg11
F-0.16314688764825666
sg12
F0.20251275699899549
sg13
F-0.3879390847329589
sg14
F-0.393882614496605
sg15
F-0.24297829775112367
sg16
F-0.4684883129161232
sg17
F-1.0832351244521563
sg18
I00
sg19
F0.2340193054816696
sg20
F-1.2369488764037329
sg21
F-0.20765419384274036
sg22
F-1.1270323204906671
ssS'OVERDYKE JR JERE C'
p197
(dp198
g3
F-0.43469448540150385
sg4
F0.09036201550338599
sg5
F-0.5680599172023625
sg6
F-0.47130134359101367
sg7
F-0.20280839515331142
sg8
F-0.24568862943260034
sg9
F-0.5539744766422853
sg10
F0.7382306865048659
sg11
F-0.3602195596444428
sg12
F-0.5933960162336667
sg13
F0.680406370368152
sg14
F0.081526768000536
sg15
F-0.24331023834532478
sg16
F0.03321428812769949
sg17
F-0.16751571639684631
sg18
I00
sg19
F0.309651006712694
sg20
F-0.001498879687102719
sg21
F0.6261378518912945
sg22
F0.05105979294341454
ssS'PEREIRA PAULO V. FERRAZ'
p199
(dp200
g3
F-0.9560994455950618
sg4
F0.09036201550338599
sg5
F-0.5680599172023625
sg6
F-0.47130134359101367
sg7
F-0.22771182139850552
sg8
F-0.24568862943260034
sg9
F-0.5539744766422853
sg10
F-0.44367314795136004
sg11
F-0.16137853864729387
sg12
F-0.5933960162336667
sg13
F-0.41232914456224135
sg14
F0.081526768000536
sg15
F-0.24349395389431658
sg16
F0.03321428812769949
sg17
F-0.16751571639684631
sg18
I00
sg19
F0.12400955823654318
sg20
F-0.001498879687102719
sg21
F-0.3972238125018185
sg22
F0.05105979294341454
ssS'STABLER FRANK'
p201
(dp202
g3
F0.35921775957738744
sg4
F0.09036201550338599
sg5
F0.19415116591931206
sg6
F-0.47130134359101367
sg7
F-0.10601006996576667
sg8
F-0.24568862943260034
sg9
F-0.07389458999139013
sg10
F-0.36090714086043213
sg11
F-0.41086856806708066
sg12
F0.05937665508470161
sg13
F-0.41232914456224135
sg14
F0.081526768000536
sg15
F0.12818660999806936
sg16
F0.03321428812769949
sg17
F-0.16751571639684631
sg18
I00
sg19
F0.309651006712694
sg20
F-0.001498879687102719
sg21
F-0.14064132712858018
sg22
F0.05105979294341454
ssS'SKILLING JEFFREY K'
p203
(dp204
g3
F5.146800600273138
sg4
F1.0833158825820661
sg5
F0.5253334878232052
sg6
F0.7893462864373895
sg7
F0.743838251750871
sg8
F-0.08936597618040538
sg9
F4.822920253847741
sg10
F3.776623025021996
sg11
F-0.13094547065541579
sg12
F0.9823065079796378
sg13
F3.581755565169594
sg14
F-0.33779936675254035
sg15
F-0.22040216199206292
sg16
F-0.06436298195483402
sg17
F-0.32095765337707416
sg18
I01
sg19
F0.309651006712694
sg20
F1.2288774004105678
sg21
F3.034180727433461
sg22
F0.6451404313417975
ssS'BLAKE JR. NORMAN P'
p205
(dp206
g3
F-0.9560994455950618
sg4
F0.09036201550338599
sg5
F-0.5680599172023625
sg6
F-0.47130134359101367
sg7
F-0.23070490239638966
sg8
F-0.24568862943260034
sg9
F-0.5539744766422853
sg10
F-0.44367314795136004
sg11
F-0.7434710005321183
sg12
F-0.5933960162336667
sg13
F-0.41232914456224135
sg14
F0.081526768000536
sg15
F-0.24349395389431658
sg16
F0.03321428812769949
sg17
F-0.16751571639684631
sg18
I00
sg19
F0.10102852203703627
sg20
F-0.001498879687102719
sg21
F-0.3972238125018185
sg22
F0.05105979294341454
ssS'SHERRICK JEFFREY B'
p207
(dp208
g3
F-0.9560994455950618
sg4
F-0.7641953732226034
sg5
F-0.5680599172023625
sg6
F3.2833381750434065
sg7
F-0.23084847778536668
sg8
F1.6141154195950578
sg9
F-0.5539744766422853
sg10
F-0.1472963985426858
sg11
F-0.7713934495720123
sg12
F-0.5933960162336667
sg13
F-0.1163583382346329
sg14
F-0.39986482758930525
sg15
F-0.24349395389431658
sg16
F-0.250882365475429
sg17
F0.9156236015597005
sg18
I00
sg19
F0.309651006712694
sg20
F-0.5964095290019459
sg21
F-0.19365666144472754
sg22
F-0.3416375782012793
ssS'PRENTICE JAMES'
p209
(dp210
g3
F-0.9560994455950618
sg4
F0.09036201550338599
sg5
F-0.5680599172023625
sg6
F-0.47130134359101367
sg7
F-0.1674970441509697
sg8
F-0.24568862943260034
sg9
F-0.5539744766422853
sg10
F-0.26656533724335607
sg11
F-0.7713934495720123
sg12
F-0.5933960162336667
sg13
F-0.22844957643806707
sg14
F0.081526768000536
sg15
F-0.24349395389431658
sg16
F0.03321428812769949
sg17
F-0.16751571639684631
sg18
I00
sg19
F0.309651006712694
sg20
F-0.001498879687102719
sg21
F-0.2925273643699755
sg22
F0.05105979294341454
ssS'GRAY RODNEY'
p211
(dp212
g3
F-0.9197706328410316
sg4
F0.09036201550338599
sg5
F-0.5680599172023625
sg6
F-0.47130134359101367
sg7
F-0.10212926873642815
sg8
F-0.24568862943260034
sg9
F-0.5539744766422853
sg10
F-0.44367314795136004
sg11
F-0.7713934495720123
sg12
F-0.5933960162336667
sg13
F-0.41232914456224135
sg14
F0.081526768000536
sg15
F0.4671856390984989
sg16
F0.03321428812769949
sg17
F-0.16751571639684631
sg18
I00
sg19
F0.309651006712694
sg20
F-0.001498879687102719
sg21
F-0.3972238125018185
sg22
F0.05105979294341454
ssS'PICKERING MARK R'
p213
(dp214
g3
F2.641287783424093
sg4
F-0.5894970627035819
sg5
F-0.20129660162547056
sg6
F-0.777231533038752
sg7
F-0.07518424311725067
sg8
F0.997929306604964
sg9
F-0.2659265446517482
sg10
F-0.43901546354460863
sg11
F-0.08036195664022101
sg12
F-0.450191561835434
sg13
F-0.4063539938364825
sg14
F-0.36845820885262903
sg15
F-0.24349395389431658
sg16
F-0.5306614407563215
sg17
F-0.8383289856446389
sg18
I00
sg19
F0.309651006712694
sg20
F-0.41500678413229924
sg21
F-0.3972238125018185
sg22
F-0.9860640334130847
ssS'NOLES JAMES L'
p215
(dp216
g3
F-0.9560994455950618
sg4
F0.09036201550338599
sg5
F-0.5680599172023625
sg6
F-0.47130134359101367
sg7
F-0.143917340334874
sg8
F-0.24568862943260034
sg9
F-0.5539744766422853
sg10
F-0.38404013422848726
sg11
F-0.7713934495720123
sg12
F-0.5933960162336667
sg13
F-0.41232914456224135
sg14
F0.081526768000536
sg15
F-0.24349395389431658
sg16
F0.03321428812769949
sg17
F-0.16751571639684631
sg18
I00
sg19
F0.309651006712694
sg20
F-0.001498879687102719
sg21
F-0.16494560007799725
sg22
F0.05105979294341454
ssS'FOWLER PEGGY'
p217
(dp218
g3
F-0.9560994455950618
sg4
F-0.8230411199237476
sg5
F-0.5680599172023625
sg6
F-0.777231533038752
sg7
F-0.23084847778536668
sg8
F-2.4758749996809515
sg9
F-0.5539744766422853
sg10
F-0.13884082035027784
sg11
F-0.7713934495720123
sg12
F-0.5933960162336667
sg13
F-0.1374991842169335
sg14
F-0.39163928458684244
sg15
F-0.24349395389431658
sg16
F-0.5306614407563215
sg17
F-1.0832351244521563
sg18
I00
sg19
F0.309651006712694
sg20
F-1.3132631345902739
sg21
F-0.11635560591103716
sg22
F-1.1270323204906671
ssS'WASAFF GEORGE'
p219
(dp220
g3
F0.4717684305647035
sg4
F-0.894759373715767
sg5
F-0.035411099374456446
sg6
F0.5386938353212067
sg7
F-0.11473146099031814
sg8
F1.1375647592083744
sg9
F-0.24192255031920346
sg10
F-0.11107407956040767
sg11
F-0.7713934495720123
sg12
F-0.20253910223514476
sg13
F-0.0661903519462812
sg14
F-0.3961259444063676
sg15
F-0.2420064842504909
sg16
F-0.42185846703597446
sg17
F0.6447526177911705
sg18
I00
sg19
F-0.7598729234833621
sg20
F-0.9041686685738982
sg21
F-0.20259759341167832
sg22
F-0.6839891325325509
ssS'WHITE JR THOMAS E'
p221
(dp222
g3
F0.7878098799307169
sg4
F0.09036201550338599
sg5
F-0.17367576559659523
sg6
F-0.47130134359101367
sg7
F-0.013705126850130814
sg8
F-0.24568862943260034
sg9
F-0.12190257865647965
sg10
F2.0056825556053406
sg11
F1.0046620599999088
sg12
F-0.15028650258202686
sg13
F-0.14321103657923
sg14
F0.081526768000536
sg15
F0.8895539492607308
sg16
F0.03321428812769949
sg17
F-0.16751571639684631
sg18
I00
sg19
F0.309651006712694
sg20
F-0.001498879687102719
sg21
F6.54567359526696
sg22
F0.05105979294341454
ssS'ALLEN PHILLIP K'
p223
(dp224
g3
F0.15301399049566808
sg4
F0.6389078996828009
sg5
F1.0102492809638097
sg6
F-0.610225059345168
sg7
F0.27255692056866737
sg8
F-0.43247465180922495
sg9
F3.4546925768926897
sg10
F-0.1639434394112776
sg11
F-0.468634635431865
sg12
F5.87062819075733
sg13
F-0.05347546856461488
sg14
F1.2228104738056333
sg15
F-0.24333529046564184
sg16
F0.4796518866469014
sg17
F-0.5743984357394418
sg18
I00
sg19
F-5.339450356592856
sg20
F0.4344584832228048
sg21
F-0.3340341067481787
sg22
F-0.180530964398328
ssS'SHARP VICTORIA T'
p225
(dp226
g3
F0.40668960499625934
sg4
F0.7823444072668396
sg5
F0.07714588482162622
sg6
F-0.5284221146513649
sg7
F-0.05387570213913988
sg8
F0.9064880300786692
sg9
F0.02212138733878891
sg10
F-0.36375337775848104
sg11
F1.768414176662651
sg12
F0.1626445098731825
sg13
F-0.35401073564699687
sg14
F-0.3168616209280895
sg15
F-0.24098769802426365
sg16
F-0.437401748996024
sg17
F-0.8427915610602277
sg18
I00
sg19
F0.309651006712694
sg20
F1.7730856350195077
sg21
F-0.2903944166026242
sg22
F-0.6437124790818131
ssS'JAEDICKE ROBERT'
p227
(dp228
g3
F-0.9560994455950618
sg4
F0.09036201550338599
sg5
F-0.5680599172023625
sg6
F-0.47130134359101367
sg7
F-0.22144704007870208
sg8
F-0.24568862943260034
sg9
F-0.5539744766422853
sg10
F-0.37384346385472367
sg11
F-0.7713934495720123
sg12
F-0.5933960162336667
sg13
F-0.3227475303582559
sg14
F0.081526768000536
sg15
F-0.24349395389431658
sg16
F0.03321428812769949
sg17
F-0.16751571639684631
sg18
I00
sg19
F0.2638136120272247
sg20
F-0.001498879687102719
sg21
F-0.3751156634877561
sg22
F0.05105979294341454
ssS'WINOKUR JR. HERBERT S'
p229
(dp230
g3
F-0.9560994455950618
sg4
F0.09036201550338599
sg5
F-0.5680599172023625
sg6
F-0.47130134359101367
sg7
F-0.2213076181607119
sg8
F-0.24568862943260034
sg9
F-0.5539744766422853
sg10
F-0.44367314795136004
sg11
F-0.7405455836663281
sg12
F-0.5933960162336667
sg13
F-0.41232914456224135
sg14
F0.081526768000536
sg15
F-0.24349395389431658
sg16
F0.03321428812769949
sg17
F-0.16751571639684631
sg18
I00
sg19
F0.2638136120272247
sg20
F-0.001498879687102719
sg21
F-0.3972238125018185
sg22
F0.05105979294341454
ssS'BROWN MICHAEL'
p231
(dp232
g3
F-0.9560994455950618
sg4
F-0.2290668641590744
sg5
F-0.5680599172023625
sg6
F-0.6396783586457251
sg7
F-0.22531560540702536
sg8
F-0.31274471236235085
sg9
F-0.5539744766422853
sg10
F-0.44367314795136004
sg11
F0.30463600177926964
sg12
F-0.5933960162336667
sg13
F-0.41232914456224135
sg14
F-0.3879004014039048
sg15
F-0.24349395389431658
sg16
F-0.515118158796272
sg17
F-0.8083808402338368
sg18
I00
sg19
F0.309651006712694
sg20
F-0.37372202150679346
sg21
F-0.3972238125018185
sg22
F-0.8652340730608712
ssS'BADUM JAMES P'
p233
(dp234
g3
F-0.9560994455950618
sg4
F0.09036201550338599
sg5
F-0.5680599172023625
sg6
F-0.47130134359101367
sg7
F-0.2103655794858531
sg8
F-0.24568862943260034
sg9
F-0.5539744766422853
sg10
F-0.4019747584557202
sg11
F-0.6952889481231693
sg12
F-0.5933960162336667
sg13
F-0.3588360049461929
sg14
F0.081526768000536
sg15
F-0.24349395389431658
sg16
F0.03321428812769949
sg17
F-0.16751571639684631
sg18
I00
sg19
F0.309651006712694
sg20
F-0.001498879687102719
sg21
F-0.3972238125018185
sg22
F0.05105979294341454
ssS'HUGHES JAMES A'
p235
(dp236
g3
F-0.9560994455950618
sg4
F-0.6992198612400903
sg5
F-0.5680599172023625
sg6
F0.05213319491920518
sg7
F-0.23084847778536668
sg8
F1.0352547454653493
sg9
F-0.5539744766422853
sg10
F-0.26278814571494186
sg11
F-0.7713934495720123
sg12
F-0.5933960162336667
sg13
F-0.25568508446003846
sg14
F-0.3931348378600175
sg15
F-0.24349395389431658
sg16
F-0.45294503095607364
sg17
F0.44615091622343955
sg18
I00
sg19
F0.309651006712694
sg20
F-0.5889032085245812
sg21
F-0.2150016824611621
sg22
F-0.422190885102755
ssS'REYNOLDS LAWRENCE'
p237
(dp238
g3
F-0.5365249987930728
sg4
F0.09036201550338599
sg5
F-0.13830135871549576
sg6
F-0.47130134359101367
sg7
F-0.18656630298731877
sg8
F-0.24568862943260034
sg9
F-0.4579584993121063
sg10
F0.2391602390096876
sg11
F-0.5878126255090977
sg12
F-0.1841227002842646
sg13
F0.450947552446038
sg14
F0.081526768000536
sg15
F-0.032584328298341715
sg16
F0.03321428812769949
sg17
F-0.16751571639684631
sg18
I00
sg19
F-0.057048150771060735
sg20
F-0.001498879687102719
sg21
F-0.29620060728102765
sg22
F0.05105979294341454
ssS'DIMICHELE RICHARD G'
p239
(dp240
g3
F0.48710177073239097
sg4
F0.09036201550338599
sg5
F0.1478108501562508
sg6
F-0.47130134359101367
sg7
F0.03499061602329539
sg8
F-0.24568862943260034
sg9
F0.4061852966595051
sg10
F0.9016148414978316
sg11
F0.010435123545016394
sg12
F0.5964631883425836
sg13
F1.2873364861582426
sg14
F0.081526768000536
sg15
F0.1476207923340317
sg16
F0.03321428812769949
sg17
F-0.16751571639684631
sg18
I00
sg19
F0.309651006712694
sg20
F-0.001498879687102719
sg21
F-0.3340341067481787
sg22
F0.05105979294341454
ssS'BHATNAGAR SANJAY'
p241
(dp242
g3
F-0.9560994455950618
sg4
F-0.819363260754926
sg5
F-0.5680599172023625
sg6
F-0.5827598037244724
sg7
F1.5042123892133532
sg8
F1.3253453206467682
sg9
F-0.5539744766422853
sg10
F-0.44367314795136004
sg11
F-0.7713934495720123
sg12
F-0.5933960162336667
sg13
F0.12806325469227656
sg14
F-0.39687372104295515
sg15
F-0.09958622408632914
sg16
F-0.515118158796272
sg17
F-1.0832351244521563
sg18
I00
sg19
F0.309651006712694
sg20
F-0.7465359385492397
sg21
F-1.703110303002245
sg22
F-1.1270323204906671
ssS'CARTER REBECCA C'
p243
(dp244
g3
F0.4817252162824748
sg4
F-0.9487013081918158
sg5
F0.496916665859597
sg6
F1.8546192036811657
sg7
F-0.17723985227036226
sg8
F0.19686813923733562
sg9
F-0.2659265446517482
sg10
F-0.44367314795136004
sg11
F-0.7713934495720123
sg12
F-0.23510345869876487
sg13
F-0.41232914456224135
sg14
F-0.4073425939551805
sg15
F-0.24293028118718263
sg16
F-0.42185846703597446
sg17
F1.8370238805045151
sg18
I00
sg19
F0.016673047849473325
sg20
F-1.0805671997919684
sg21
F-0.24314365691770348
sg22
F-0.5430208454549685
ssS'BUCHANAN HAROLD G'
p245
(dp246
g3
F0.4059811519584256
sg4
F-0.4730315223575676
sg5
F0.23567163857989593
sg6
F-0.777231533038752
sg7
F-0.11245917559260704
sg8
F-2.4679851355856024
sg9
F-0.07389458999139013
sg10
F-0.2795907769856204
sg11
F-0.758294568083399
sg12
F0.03696545223862288
sg13
F-0.24105781257086054
sg14
F-0.3250871639305523
sg15
F-0.2422256903032652
sg16
F-0.5306614407563215
sg17
F-1.0832351244521563
sg18
I00
sg19
F0.309651006712694
sg20
F-1.2969994402226503
sg21
F-0.3024390031722794
sg22
F-1.1270323204906671
ssS'YEAP SOON'
p247
(dp248
g3
F-0.9560994455950618
sg4
F0.09036201550338599
sg5
F-0.5680599172023625
sg6
F-0.47130134359101367
sg7
F-0.22466351046209385
sg8
F-0.24568862943260034
sg9
F-0.5539744766422853
sg10
F-0.4124971659082809
sg11
F0.4314550060581935
sg12
F-0.5933960162336667
sg13
F-0.37233476635556656
sg14
F0.081526768000536
sg15
F-0.24349395389431658
sg16
F0.03321428812769949
sg17
F-0.16751571639684631
sg18
I00
sg19
F0.309651006712694
sg20
F-0.001498879687102719
sg21
F-0.3972238125018185
sg22
F0.05105979294341454
ssS'MURRAY JULIA H'
p249
(dp250
g3
F0.30310168872014165
sg4
F0.20369456470558944
sg5
F0.26685886997955094
sg6
F-0.5265790819225694
sg7
F-0.13967485036176383
sg8
F-1.7697501921420369
sg9
F-0.16991056732156917
sg10
F-0.34704196580877644
sg11
F0.48566254395190456
sg12
F-0.04790532233058806
sg13
F-0.32923599877606025
sg14
F-0.38490929485755465
sg15
F-0.24314948723995694
sg16
F-0.49957487683622237
sg17
F-0.9255720092839695
sg18
I00
sg19
F0.309651006712694
sg20
F-0.8316075706260395
sg21
F-0.29845689899543315
sg22
F-0.905510726511609
ssS'GARLAND C KEVIN'
p251
(dp252
g3
F0.3177210839659812
sg4
F-1.0118378905899181
sg5
F0.3518411868427269
sg6
F2.6834812863494513
sg7
F-0.055002976616158696
sg8
F1.1778389563713296
sg9
F0.2621613306642365
sg10
F-0.2987326015882958
sg11
F0.2853588145218605
sg12
F0.5524681614385334
sg13
F-0.2803176941607846
sg14
F-0.3856570714941422
sg15
F-0.18001396868756972
sg16
F-0.11099282783498277
sg17
F0.4200164999439523
sg18
I00
sg19
F0.309651006712694
sg20
F-1.1030861612240626
sg21
F-0.266906921253822
sg22
F-0.9256490532369779
ssS'DODSON KEITH'
p253
(dp254
g3
F0.2576233971984297
sg4
F-1.0320661160184366
sg5
F-0.1971468265032188
sg6
F0.4312713562714141
sg7
F-0.1949331896503461
sg8
F0.28256508201880515
sg9
F-0.48676329251116
sg10
F-0.44367314795136004
sg11
F-0.15653195249650698
sg12
F-0.49435821835014077
sg13
F-0.41232914456224135
sg14
F-0.40809037059176806
sg15
F-0.24268602301409126
sg16
F-0.4840315948761728
sg17
F0.7018761795182226
sg18
I00
sg19
F0.309651006712694
sg20
F-1.1831535796492858
sg21
F-0.3972238125018185
sg22
F-0.9256490532369779
ssS'YEAGER F SCOTT'
p255
(dp256
g3
F-0.08616854209141055
sg4
F0.34170185161184413
sg5
F-0.5680599172023625
sg6
F0.4754346406132284
sg7
F-0.190402650851501
sg8
F0.6772917136919027
sg9
F-0.5539744766422853
sg10
F1.4785246440694209
sg11
F0.4063488165383514
sg12
F-0.5933960162336667
sg13
F1.3115701023578554
sg14
F-0.19395918944323917
sg15
F-0.08905807052308302
sg16
F0.5062975128641292
sg17
F0.18778100445989732
sg18
I01
sg19
F0.309651006712694
sg20
F0.9048545664709919
sg21
F1.3958792912331042
sg22
F0.8422083428686221
ssS'HIRKO JOSEPH'
p257
(dp258
g3
F-0.9560994455950618
sg4
F0.34170185161184413
sg5
F-0.5680599172023625
sg6
F0.4754346406132284
sg7
F-0.22062274447177627
sg8
F0.6772917136919027
sg9
F-0.5539744766422853
sg10
F4.532318815029294
sg11
F0.9309808516264592
sg12
F-0.5933960162336667
sg13
F5.971165182764048
sg14
F-0.19395918944323917
sg15
F-0.24051275157658597
sg16
F0.5062975128641292
sg17
F0.18778100445989732
sg18
I01
sg19
F0.309651006712694
sg20
F0.9048545664709919
sg21
F-0.3972238125018185
sg22
F0.8422083428686221
ssS'DIETRICH JANET R'
p259
(dp260
g3
F0.41742074636003484
sg4
F0.4366256453976181
sg5
F0.1531027953196448
sg6
F0.476030722542161
sg7
F-0.07251546962425671
sg8
F0.6854328132855513
sg9
F0.02212138733878891
sg10
F-0.14202071940997432
sg11
F-0.695529094283794
sg12
F0.15673765986113627
sg13
F-0.09072357637035403
sg14
F-0.37144931539897913
sg15
F-0.24300021835640112
sg16
F-0.3130554933156274
sg17
F2.6424559640832226
sg18
I00
sg19
F0.309651006712694
sg20
F1.0537299226053916
sg21
F-0.23924929741863962
sg22
F5.015157330746852
ssS'DERRICK JR. JAMES V'
p261
(dp262
g3
F1.7479669459039013
sg4
F0.19695182289608335
sg5
F1.8934261574043008
sg6
F-0.6531461611990577
sg7
F-0.1689975697369397
sg8
F0.2590300473519529
sg9
F0.21415334199914698
sg10
F0.9847685307028987
sg11
F0.34471857913442616
sg12
F-0.08535930331821212
sg13
F1.4201596175666849
sg14
F0.2611697191540706
sg15
F-0.2356839553854719
sg16
F-0.21979580155532985
sg17
F-0.16129593472623482
sg18
I00
sg19
F-2.0445575843330115
sg20
F0.42695216274544007
sg21
F0.4989652284968617
sg22
F0.16182058993294357
ssS'PAI LOU L'
p263
(dp264
g3
F0.4821096481634698
sg4
F0.09036201550338599
sg5
F-0.025286240842125055
sg6
F-0.47130134359101367
sg7
F0.1197699187346949
sg8
F-0.24568862943260034
sg9
F0.4061852966595051
sg10
F3.408552741419338
sg11
F-0.07176035779603165
sg12
F0.6005932713845985
sg13
F2.7755038160853664
sg14
F0.081526768000536
sg15
F1.6661634160596328
sg16
F0.03321428812769949
sg17
F-0.16751571639684631
sg18
I00
sg19
F0.309651006712694
sg20
F-0.001498879687102719
sg21
F3.841477390264312
sg22
F0.05105979294341454
ssS'BAY FRANKLIN R'
p265
(dp266
g3
F0.3601458879757897
sg4
F0.09036201550338599
sg5
F0.25122159368620883
sg6
F-0.47130134359101367
sg7
F-0.1379346582742568
sg8
F-0.24568862943260034
sg9
F-0.16991056732156917
sg10
F-0.43348149140552233
sg11
F2.047966139098805
sg12
F-0.07154611257042218
sg13
F-0.41232914456224135
sg14
F0.081526768000536
sg15
F-0.243421929048405
sg16
F0.03321428812769949
sg17
F-0.16751571639684631
sg18
I00
sg19
F-0.06005691735821494
sg20
F-0.001498879687102719
sg21
F-0.324121966547716
sg22
F0.05105979294341454
ssS'HAYSLETT RODERICK J'
p267
(dp268
g3
F-0.9560994455950618
sg4
F0.48382483806416077
sg5
F-0.5680599172023625
sg6
F-0.5752448735624691
sg7
F-0.23084847778536668
sg8
F-1.6145631022030458
sg9
F-0.5539744766422853
sg10
F-0.3876051276201678
sg11
F-0.7713934495720123
sg12
F-0.5933960162336667
sg13
F-0.41232914456224135
sg14
F0.3748317679153751
sg15
F-0.24349395389431658
sg16
F0.059983273725562655
sg17
F-0.6681243040498334
sg18
I00
sg19
F0.309651006712694
sg20
F-0.6114221699566753
sg21
F-0.2234076225927194
sg22
F-0.422190885102755
ssS'FUGH JOHN L'
p269
(dp270
g3
F-0.9560994455950618
sg4
F0.09036201550338599
sg5
F-0.5680599172023625
sg6
F-0.47130134359101367
sg7
F-0.22516933587470556
sg8
F-0.24568862943260034
sg9
F-0.5539744766422853
sg10
F-0.4151464078897584
sg11
F-0.7713934495720123
sg12
F-0.5933960162336667
sg13
F-0.3757333693449384
sg14
F0.081526768000536
sg15
F-0.24349395389431658
sg16
F0.03321428812769949
sg17
F-0.16751571639684631
sg18
I00
sg19
F0.309651006712694
sg20
F-0.001498879687102719
sg21
F-0.3972238125018185
sg22
F0.05105979294341454
ssS'FALLON JAMES B'
p271
(dp272
g3
F0.7166625225265655
sg4
F-0.06417617809024356
sg5
F0.5847782816523867
sg6
F2.005010674350875
sg7
F0.18184264458501287
sg8
F1.4512553627304747
sg9
F1.8464249566121909
sg10
F-0.06643936600043791
sg11
F1.322768396950881
sg12
F1.9730274857771122
sg13
F-0.21723999615089967
sg14
F-0.3624759957599288
sg15
F0.17558730931464736
sg16
F0.04443999176551307
sg17
F-0.33135234616446163
sg18
I00
sg19
F0.309651006712694
sg20
F0.6809160055629454
sg21
F0.3007936230261524
sg22
F-0.2812225980251726
ssS'KOENIG MARK E'
p273
(dp274
g3
F0.7460880370747278
sg4
F0.31525629282650847
sg5
F0.1795067658097352
sg6
F0.6095750612516027
sg7
F-0.0526509894778896
sg8
F1.6384913792804392
sg9
F0.11813736466896795
sg10
F-0.13313039381547773
sg11
F2.001574267159967
sg12
F0.11278023529572423
sg13
F-0.272953846865559
sg14
F-0.3729448686721542
sg15
F-0.08644012394994985
sg16
F-0.29751221135557776
sg17
F-0.3818232355121523
sg18
I01
sg19
F0.309651006712694
sg20
F1.5153686319633202
sg21
F0.22868053424111837
sg22
F-0.0597010040461145
ssS'SAVAGE FRANK'
p275
(dp276
g3
F-0.9560994455950618
sg4
F0.09036201550338599
sg5
F-0.5680599172023625
sg6
F-0.47130134359101367
sg7
F-0.23042751788805332
sg8
F-0.24568862943260034
sg9
F-0.5539744766422853
sg10
F-0.44367314795136004
sg11
F-0.7713934495720123
sg12
F-0.5933960162336667
sg13
F-0.41232914456224135
sg14
F0.081526768000536
sg15
F-0.24349395389431658
sg16
F0.03321428812769949
sg17
F-0.16751571639684631
sg18
I00
sg19
F0.08727730363139546
sg20
F-0.001498879687102719
sg21
F-0.3972238125018185
sg22
F0.05105979294341454
ssS'IZZO LAWRENCE L'
p277
(dp278
g3
F-0.48778452816691736
sg4
F-0.8359136270146229
sg5
F-0.5680599172023625
sg6
F0.7068948222544345
sg7
F-0.008627003416860535
sg8
F1.3067817691328205
sg9
F-0.5539744766422853
sg10
F0.4976293763074515
sg11
F-0.1580819868059929
sg12
F-0.5933960162336667
sg13
F0.036911394613836516
sg14
F-0.4043514874088304
sg15
F1.3783479564436578
sg16
F-0.45294503095607364
sg17
F0.690359332395833
sg18
I00
sg19
F0.309651006712694
sg20
F-0.7790633272844867
sg21
F1.435290189307704
sg22
F-0.5631591721803374
ssS'TILNEY ELIZABETH A'
p279
(dp280
g3
F0.40225216271277386
sg4
F-0.8579807820275519
sg5
F0.7053400223992836
sg6
F2.4878464486062586
sg7
F-0.1860142281139889
sg8
F1.0559730392147881
sg9
F-0.2659265446517482
sg10
F-0.25475825768707894
sg11
F-0.7713934495720123
sg12
F-0.21414084235963554
sg13
F-0.2896536856204778
sg14
F-0.4043514874088304
sg15
F-0.08477311411051855
sg16
F-0.3596853391957761
sg17
F-0.40023601684609833
sg18
I00
sg19
F-0.7446090710531008
sg20
F-0.8516244252323454
sg21
F-0.1080213657161821
sg22
F-0.9256490532369779
ssS'MARTIN AMANDA K'
p281
(dp282
g3
F0.9632426228807913
sg4
F-0.20699970914614538
sg5
F-0.5680599172023625
sg6
F-0.777231533038752
sg7
F0.7128892801003943
sg8
F-1.1850263672807915
sg9
F-0.5539744766422853
sg10
F-0.10882934027707886
sg11
F-0.5921352564003401
sg12
F-0.5933960162336667
sg13
F0.017228130194438057
sg14
F-0.24657061708886174
sg15
F2.698516409276935
sg16
F-0.5306614407563215
sg17
F-0.9180947357537139
sg18
I00
sg19
F0.309651006712694
sg20
F-0.7290211907687221
sg21
F-0.3972238125018185
sg22
F-0.9659257066877157
ssS'BUY RICHARD B'
p283
(dp284
g3
F0.8592208477675507
sg4
F1.0195663236558268
sg5
F0.07962857065898872
sg6
F-0.39696819908044084
sg7
F0.03359314142018772
sg8
F0.3461829204145441
sg9
F0.310169319329326
sg10
F0.11342297707548689
sg11
F-0.7713934495720123
sg12
F0.2579609767021586
sg13
F0.11526620728229575
sg14
F0.36884955482267484
sg15
F0.17463846025763857
sg16
F0.572911578407199
sg17
F0.3079660098598142
sg18
I00
sg19
F-0.96437554312469
sg20
F1.5929339435627552
sg21
F0.054865347128336836
sg22
F2.014546648666884
ssS'GRAMM WENDY L'
p285
(dp286
g3
F-0.9560994455950618
sg4
F0.09036201550338599
sg5
F-0.5680599172023625
sg6
F-0.47130134359101367
sg7
F-0.21745723829995256
sg8
F-0.24568862943260034
sg9
F-0.5539744766422853
sg10
F-0.44367314795136004
sg11
F-0.7713934495720123
sg12
F-0.5933960162336667
sg13
F-0.41232914456224135
sg14
F0.081526768000536
sg15
F-0.24349395389431658
sg16
F0.03321428812769949
sg17
F-0.16751571639684631
sg18
I00
sg19
F0.309651006712694
sg20
F-0.001498879687102719
sg21
F-0.3972238125018185
sg22
F0.05105979294341454
ssS'CAUSEY RICHARD A'
p287
(dp288
g3
F1.3240703863827255
sg4
F0.019801606264514146
sg5
F0.33911483393773567
sg6
F0.6039146261728665
sg7
F-0.021069230909771454
sg8
F1.1166601783517407
sg9
F0.4061852966595051
sg10
F-0.03899852402574952
sg11
F-0.10173496493580828
sg12
F0.15970852327047155
sg13
F-0.41232914456224135
sg14
F-0.38191818831120455
sg15
F0.07789865381494974
sg16
F-0.34414205723572655
sg17
F-0.12010530463557977
sg18
I01
sg19
F-0.12122050333071782
sg20
F0.6571459907179572
sg21
F0.8573059687916282
sg22
F0.04099062958073008
ssS'TAYLOR MITCHELL S'
p289
(dp290
g3
F0.5004250813508758
sg4
F-0.8132334954735569
sg5
F0.362852948113513
sg6
F-0.777231533038752
sg7
F-0.10819052997787715
sg8
F-0.09001540128628789
sg9
F0.02212138733878891
sg10
F0.16203737611752225
sg11
F-0.7713934495720123
sg12
F0.1139890855758539
sg13
F0.24773225714344194
sg14
F-0.39687372104295515
sg15
F-0.24349395389431658
sg16
F-0.5306614407563215
sg17
F-1.0832351244521563
sg18
I00
sg19
F0.309651006712694
sg20
F-0.9504576448509805
sg21
F-0.11453653339106759
sg22
F-1.1270323204906671
ssS'DONAHUE JR JEFFREY M'
p291
(dp292
g3
F0.573944932649168
sg4
F-0.6097252881321003
sg5
F0.9805744790624291
sg6
F2.0426085420183027
sg7
F-0.13253918720639857
sg8
F1.3569878220326228
sg9
F0.21415334199914698
sg10
F-0.26883805692123897
sg11
F1.330278422337686
sg12
F0.3044635625968003
sg13
F-0.25341229464651105
sg14
F-0.40210815749906786
sg15
F-0.24256389392754557
sg16
F-0.3596853391957761
sg17
F5.745176762920318
sg18
I00
sg19
F-0.2403977295129381
sg20
F-0.3599604339649582
sg21
F-0.23924929741863962
sg22
F2.6589731038786892
ssS'GLISAN JR BEN F'
p293
(dp294
g3
F0.5540313612136255
sg4
F-0.6048214759070049
sg5
F0.2314267101187706
sg6
F1.337648523254039
sg7
F-0.08802699992045865
sg8
F1.83397555619308
sg9
F0.02212138733878891
sg10
F-0.3177539325843656
sg11
F1.978891370715518
sg12
F0.08887849014440488
sg13
F-0.3325038862658408
sg14
F-0.40659481731859304
sg15
F-0.034404782374715025
sg16
F-0.437401748996024
sg17
F0.7881667832153015
sg18
I01
sg19
F0.309651006712694
sg20
F-0.2323529858497585
sg21
F-0.1997641924165438
sg22
F-0.07983933077148342
ss.