(dp0
S'METTS MARK'
p1
(dp2
S'salary'
p3
F1.0600494029164842
sS'to_messages'
p4
F-0.6482666781527677
sS'bonus_to_total'
p5
F0.39497733765959275
sS'from_poi_ratio'
p6
F-0.5809877372348505
sS'total_payments'
p7
F-0.11035858803418178
sS'shared_poi_ratio'
p8
F1.263885359384025
sS'bonus'
p9
F0.026201789554250832
sS'total_stock_value'
p10
F-0.3468448943360047
sS'expenses'
p11
F1.294803480375543
sS'bonus_to_salary'
p12
F-0.07638784816635469
sS'exercised_stock_options'
p13
F-0.4105796439072099
sS'from_messages'
p14
F-0.3989028513692934
sS'other'
p15
F-0.24073552158212333
sS'from_this_person_to_poi'
p16
F-0.517234226539047
sS'to_poi_ratio'
p17
F0.39879412199283126
sS'poi'
p18
I00
sS'deferred_income'
p19
F0.3084199149295356
sS'shared_receipt_with_poi'
p20
F-0.4491536348811523
sS'restricted_stock'
p21
F-0.10130639979769326
sS'from_poi_to_this_person'
p22
F-0.3634617674520255
ssS'ELLIOTT STEVEN'
p23
(dp24
g3
F-0.01038652496664791
sg4
F0.09003135814019478
sg5
F2.244052450879929
sg6
F-0.4692131540861002
sg7
F-0.20611677521492044
sg8
F-0.244743313711013
sg9
F-0.21444518944539068
sg10
F0.6416094481911004
sg11
F0.9505124277755721
sg12
F0.051235511700444325
sg13
F0.6071627075256698
sg14
F0.08122888796599614
sg15
F-0.22898246584924806
sg16
F0.03309359542350569
sg17
F-0.16689070458730987
sg18
I00
sg19
F-0.4287356103696122
sg20
F-0.001493439077366923
sg21
F0.5038926495901052
sg22
F0.050873976775730384
ssS'CORDES WILLIAM R'
p25
(dp26
g3
F-0.9494894516130448
sg4
F-0.6747199084134266
sg5
F-0.565337394995293
sg6
F-0.7760110351728682
sg7
F-0.22996615114962227
sg8
F-2.2333706418084076
sg9
F-0.5513509600448888
sg10
F-0.27334383888900093
sg11
F-0.7669417389757399
sg12
F-0.5904892595450129
sg13
F-0.2749214260432882
sg14
F-0.4116610574988636
sg15
F-0.24255802554569192
sg16
F-0.5328340703112139
sg17
F-0.6731666670932156
sg18
I00
sg19
F0.3084199149295356
sg20
F-1.2577671120541136
sg21
F-0.2012536224505912
sg22
F-0.9293837595679847
ssS'HANNON KEVIN P'
p27
(dp28
g3
F0.3870955006955403
sg4
F-0.5018511246170279
sg5
F8.265210678929817
sg6
F2.935526103710031
sg7
F-0.19744809450264345
sg8
F1.794844402985233
sg9
F0.8925309139529602
sg10
F0.5949465142406287
sg11
F-0.022715972832956705
sg12
F1.3418734375463197
sg13
F0.7419483091320118
sg14
F-0.39665140322878095
sg15
F-0.23066985313965552
sg16
F-0.20523735109571006
sg17
F-0.12036490777477815
sg18
I01
sg19
F-5.425434837454799
sg20
F-0.03103517541128254
sg21
F0.03348180495265245
sg22
F-0.48473076576258817
ssS'MORDAUNT KRISTINA M'
p29
(dp30
g3
F0.5178461670317863
sg4
F0.09003135814019478
sg5
F0.31344021416818973
sg6
F-0.4692131540861002
sg7
F-0.15916743837961086
sg8
F-0.244743313711013
sg9
F-0.23850988734535483
sg10
F-0.4079253723313396
sg11
F-0.001311201098952038
sg12
F-0.20911809359502911
sg13
F-0.4105796439072099
sg14
F0.08122888796599614
sg15
F-0.24108012146948773
sg16
F0.03309359542350569
sg17
F-0.16689070458730987
sg18
I00
sg19
F0.3084199149295356
sg20
F-0.001493439077366923
sg21
F-0.29068844946580086
sg22
F0.050873976775730384
ssS'MEYER ROCKFORD G'
p31
(dp32
g3
F-0.9494894516130448
sg4
F-1.0020017339639038
sg5
F-0.565337394995293
sg6
F-0.7760110351728682
sg7
F-0.021775996299386553
sg8
F-2.150070686323951
sg9
F-0.5513509600448888
sg10
F-0.2866956636164012
sg11
F-0.7669417389757399
sg12
F-0.5904892595450129
sg13
F-0.30787835024233473
sg14
F-0.3996533340827975
sg15
F-0.24255802554569192
sg16
F-0.5328340703112139
sg17
F-1.0858526497248537
sg18
I00
sg19
F0.3084199149295356
sg20
F-1.3029691076724779
sg21
F-0.16300574302036663
sg22
F-1.1314987567522559
ssS'MCMAHON JEFFREY'
p33
(dp34
g3
F1.0856501636361022
sg4
F0.30404961123095176
sg5
F0.5124419452979097
sg6
F2.287479936603493
sg7
F0.23184506540576066
sg8
F1.5994562083756867
sg9
F1.951377621551383
sg10
F-0.1720161545602871
sg11
F2.2307757716533834
sg12
F1.6092595597673656
sg13
F-0.180812062307863
sg14
F-0.38464367981271486
sg15
F0.06889428541925466
sg16
F-0.12723813223487582
sg17
F-0.3093370971824694
sg18
I00
sg19
F0.3084199149295356
sg20
F1.4669087349417342
sg21
F-0.11451403647558682
sg22
F0.040768226916516825
ssS'HORTON STANLEY C'
p35
(dp36
g3
F-0.9494894516130448
sg4
F0.3009736542238984
sg5
F-0.565337394995293
sg6
F-0.696947536008807
sg7
F0.12281649858401933
sg8
F-0.5546949480237999
sg9
F-0.5513509600448888
sg10
F0.7353526822722312
sg11
F-0.7669417389757399
sg12
F-0.5904892595450129
sg13
F0.6738055744666446
sg14
F0.38460110152902066
sg15
F-0.24255802554569192
sg16
F-0.2988364137287111
sg17
F-0.4955185223995282
sg18
I00
sg19
F0.3084199149295356
sg20
F0.01793365317527878
sg21
F0.6334935589329722
sg22
F-0.2421927691414628
ssS'PIPER GREGORY F'
p37
(dp38
g3
F0.13327439623893342
sg4
F-0.3831191841447683
sg5
F-0.17411920375856013
sg6
F0.44683775189794545
sg7
F-0.03423410601541514
sg8
F0.07224542936446084
sg9
F-0.16631579364546237
sg10
F-0.29895597764559606
sg11
F0.17445280295586257
sg12
F0.04560312777988309
sg13
F-0.22738017684664125
sg14
F-0.25405968766299586
sg15
F-0.24174313584244114
sg16
F0.21595843075279483
sg17
F0.4676867310962176
sg18
I00
sg19
F0.2471026528277249
sg20
F-0.39892919530519194
sg21
F-0.18957592106739898
sg22
F0.10140272607179818
ssS'HUMPHREY GENE E'
p39
(dp40
g3
F-0.23132768244752228
sg4
F-1.0659816397106137
sg5
F-0.565337394995293
sg6
F4.879664605029645
sg7
F0.11925291914337592
sg8
F1.5272856196761337
sg9
F-0.5513509600448888
sg10
F-0.07146010292459788
sg11
F-0.6577533528269971
sg12
F-0.5904892595450129
sg13
F0.06449320824710315
sg14
F-0.40790864393134296
sg15
F-0.24255802554569192
sg16
F-0.26763672618437745
sg17
F1.3773668091077365
sg18
I00
sg19
F0.3084199149295356
sg20
F-1.1811748417007741
sg21
F-0.3955559078149721
sg22
F-0.9293837595679847
ssS'UMANOFF ADAM S'
p41
(dp42
g3
F0.6359392898706077
sg4
F-1.0764398935345951
sg5
F0.6204310629593905
sg6
F-0.7760110351728682
sg7
F-0.10262743645594431
sg8
F-0.9407804318834615
sg9
F0.20789025869898017
sg10
F-0.44174776729088644
sg11
F0.39451309662568584
sg12
F0.2661275624337401
sg13
F-0.4105796439072099
sg14
F-0.4071581612178388
sg15
F-0.24255802554569192
sg16
F-0.5328340703112139
sg17
F2.3227104933083527
sg18
I00
sg19
F0.3084199149295356
sg20
F-1.2791124988738967
sg21
F-0.3955559078149721
sg22
F-0.8889607601311305
ssS'BLACHMAN JEREMY M'
p43
(dp44
g3
F0.4159540406226117
sg4
F0.3778725794002323
sg5
F0.1516236257054331
sg6
F0.03194262771320504
sg7
F-0.0030087424288998263
sg8
F1.5718198415587779
sg9
F0.26684876855389233
sg10
F-0.28694206051795773
sg11
F1.0741747249436318
sg12
F0.48137341380029763
sg13
F-0.2513083427058729
sg14
F-0.41016009207185533
sg15
F-0.24227312837437545
sg16
F-0.5016343827668802
sg17
F-0.767375790401044
sg18
I00
sg19
F0.3084199149295356
sg20
F1.589958611902837
sg21
F-0.30048013593935136
sg22
F-0.626211263791578
ssS'SUNDE MARTIN'
p45
(dp46
g3
F0.4650679463808487
sg4
F0.4836855004428678
sg5
F0.20462422474600012
sg6
F1.1588253680543072
sg7
F-0.0559258019594252
sg8
F1.7005425396560279
sg9
F0.12246058115410743
sg10
F-0.328375994785364
sg11
F-0.7669417389757399
sg12
F0.26157317586094864
sg13
F-0.4105796439072099
sg14
F-0.39214850694775616
sg15
F-0.1261670569022049
sg16
F-0.33003610127304484
sg17
F-0.64513457805764
sg18
I00
sg19
F0.3084199149295356
sg20
F1.8900496383692
sg21
F-0.04404296364249717
sg22
F-0.38367326717045264
ssS'GIBBS DANA R'
p47
(dp48
g3
F-0.9494894516130448
sg4
F-1.0407587922527761
sg5
F-0.565337394995293
sg6
F-0.7760110351728682
sg7
F-0.12109404569603917
sg8
F-1.9682991279290305
sg9
F-0.5513509600448888
sg10
F-0.08192150869950582
sg11
F-0.7669417389757399
sg12
F-0.5904892595450129
sg13
F0.051071400400669306
sg14
F-0.4116610574988636
sg15
F-0.24255802554569192
sg16
F-0.5328340703112139
sg17
F-1.0858526497248537
sg18
I00
sg19
F0.3084199149295356
sg20
F-1.3017134966830788
sg21
F-0.3955559078149721
sg22
F-1.1314987567522559
ssS'LOWRY CHARLES P'
p49
(dp50
g3
F-0.9494894516130448
sg4
F0.09003135814019478
sg5
F-0.565337394995293
sg6
F-0.4692131540861002
sg7
F-0.22996615114962227
sg8
F-0.244743313711013
sg9
F-0.5513509600448888
sg10
F-0.3813724159124483
sg11
F-0.7669417389757399
sg12
F-0.5904892595450129
sg13
F-0.3331190824589611
sg14
F0.08122888796599614
sg15
F-0.24255802554569192
sg16
F0.03309359542350569
sg17
F-0.16689070458730987
sg18
I00
sg19
F0.3084199149295356
sg20
F-0.001493439077366923
sg21
F-0.3182614845074534
sg22
F0.050873976775730384
ssS'COLWELL WESLEY'
p51
(dp52
g3
F0.6356810847732209
sg4
F-0.06321965541121914
sg5
F0.8030555553983602
sg6
F0.779299765882823
sg7
F-0.0620890732040454
sg8
F0.2685203304592733
sg9
F0.6037545391533905
sg10
F-0.32848597312588756
sg11
F-0.40588106439417404
sg12
F0.7129752417433723
sg13
F-0.4105796439072099
sg14
F-0.39064754152074793
sg15
F-0.13599391448048098
sg16
F-0.36123578881737856
sg17
F3.218476233968956
sg18
I01
sg19
F0.043412642469479464
sg20
F0.09075909056042125
sg21
F-0.044383955138160396
sg22
F3.719261175670252
ssS'MULLER MARK S'
p53
(dp54
g3
F0.4330285394029921
sg4
F-1.0610601084993283
sg5
F0.018481261266548678
sg6
F-0.7760110351728682
sg7
F0.13072517580388196
sg8
F1.1244607379889389
sg9
F0.5074957475535339
sg10
F-0.2119209357065786
sg11
F-0.7669417389757399
sg12
F0.7794958507778529
sg13
F-0.19074611058816743
sg14
F-0.4086591266448471
sg15
F-0.24156612252643936
sg16
F-0.5328340703112139
sg17
F1.6961363861331307
sg18
I00
sg19
F-1.0142066548722188
sg20
F-1.187452896647769
sg21
F-0.2142329255900908
sg22
F-0.8889607601311305
ssS'JACKSON CHARLENE R'
p55
(dp56
g3
F0.635768984380842
sg4
F-0.9860067575272263
sg5
F0.20550819371681617
sg6
F1.1428789141815558
sg7
F-0.1678801625727733
sg8
F-0.5702565391805152
sg9
F-0.31070398104524727
sg10
F-0.324026335196662
sg11
F-0.5443452312904473
sg12
F-0.31894921233125717
sg13
F-0.372065696261968
sg14
F-0.3786398181046818
sg15
F-0.2400075674127669
sg16
F-0.23643703864004376
sg17
F1.9693032682070413
sg18
I00
sg19
F0.3084199149295356
sg20
F-1.183686063679572
sg21
F-0.12363178695475868
sg22
F-0.626211263791578
ssS'WESTFAHL RICHARD K'
p57
(dp58
g3
F-0.5992974148509578
sg4
F0.09003135814019478
sg5
F-0.565337394995293
sg6
F-0.4692131540861002
sg7
F-0.14411684602271718
sg8
F-0.244743313711013
sg9
F-0.5513509600448888
sg10
F-0.3793082944033589
sg11
F0.36713947638975747
sg12
F-0.5904892595450129
sg13
F-0.4105796439072099
sg14
F0.08122888796599614
sg15
F0.17759198302112605
sg16
F0.03309359542350569
sg17
F-0.16689070458730987
sg18
I00
sg19
F0.288552923338633
sg20
F-0.001493439077366923
sg21
F-0.2019602493700703
sg22
F0.050873976775730384
ssS'WALTERS GARETH W'
p59
(dp60
g3
F-0.9494894516130448
sg4
F0.09003135814019478
sg5
F-0.565337394995293
sg6
F-0.4692131540861002
sg7
F-0.22012001134349504
sg8
F-0.244743313711013
sg9
F-0.5513509600448888
sg10
F-0.2746181601915869
sg11
F-0.02826940697027763
sg12
F-0.5904892595450129
sg13
F-0.1961551659544345
sg14
F0.08122888796599614
sg15
F-0.24255802554569192
sg16
F0.03309359542350569
sg17
F-0.16689070458730987
sg18
I00
sg19
F0.3084199149295356
sg20
F-0.001493439077366923
sg21
F-0.3955559078149721
sg22
F0.050873976775730384
ssS'WALLS JR ROBERT H'
p61
(dp62
g3
F1.0122704724489913
sg4
F-0.731932708744619
sg5
F0.23773922256969404
sg6
F-0.7760110351728682
sg7
F-0.027345863305376403
sg8
F-1.1564025302744896
sg9
F0.26684876855389233
sg10
F0.5151281926111899
sg11
F0.34671858078244355
sg12
F0.15555917071305447
sg13
F0.4939910593329865
sg14
F-0.3110963738893099
sg15
F-0.2425559307135499
sg16
F-0.5328340703112139
sg17
F-0.28705003535529844
sg18
I00
sg19
F0.3084199149295356
sg20
F-1.0606361867184693
sg21
F0.3852306267231599
sg22
F-0.7879032615389949
ssS'CHAN RONNIE'
p63
(dp64
g3
F-0.9494894516130448
sg4
F0.09003135814019478
sg5
F-0.565337394995293
sg6
F-0.4692131540861002
sg7
F-0.22996615114962227
sg8
F-0.244743313711013
sg9
F-0.5513509600448888
sg10
F-0.44174776729088644
sg11
F-0.7669417389757399
sg12
F-0.5904892595450129
sg13
F-0.4105796439072099
sg14
F0.08122888796599614
sg15
F-0.24255802554569192
sg16
F0.03309359542350569
sg17
F-0.16689070458730987
sg18
I00
sg19
F0.12670316517808008
sg20
F-0.001493439077366923
sg21
F-0.3792305627571135
sg22
F0.050873976775730384
ssS'BELFER ROBERT'
p65
(dp66
g3
F-0.9494894516130448
sg4
F0.09003135814019478
sg5
F-0.565337394995293
sg6
F-0.4692131540861002
sg7
F-0.2184202258535687
sg8
F-0.244743313711013
sg9
F-0.5513509600448888
sg10
F-0.4489000902535803
sg11
F-0.7669417389757399
sg12
F-0.5904892595450129
sg13
F-0.4098959939176679
sg14
F0.08122888796599614
sg15
F-0.24255802554569192
sg16
F0.03309359542350569
sg17
F-0.16689070458730987
sg18
I00
sg19
F0.3084199149295356
sg20
F-0.001493439077366923
sg21
F-0.3955559078149721
sg22
F0.050873976775730384
ssS'SHANKMAN JEFFREY A'
p67
(dp68
g3
F0.7212074029884595
sg4
F0.8368053648525933
sg5
F0.5532192690350939
sg6
F-0.6009192492210559
sg7
F0.11232288581592415
sg8
F-0.2019662792552364
sg9
F1.3738248719522432
sg10
F-0.10564309058471098
sg11
F3.1462397116682044
sg12
F1.4707399783993342
sg13
F-0.11050245893896098
sg14
F1.5913773048436655
sg15
F-0.24131055300511137
sg16
F0.7619529627786346
sg17
F-0.1657205004335242
sg18
I00
sg19
F0.3084199149295356
sg20
F0.8416144622210281
sg21
F-0.07863650058379996
sg22
F0.768382216779893
ssS'WODRASKA JOHN'
p69
(dp70
g3
F-0.9494894516130448
sg4
F0.09003135814019478
sg5
F-0.565337394995293
sg6
F-0.4692131540861002
sg7
F-0.20861092036521525
sg8
F-0.244743313711013
sg9
F-0.5513509600448888
sg10
F-0.44174776729088644
sg11
F-0.7669417389757399
sg12
F-0.5904892595450129
sg13
F-0.4105796439072099
sg14
F0.08122888796599614
sg15
F-0.0439857445541853
sg16
F0.03309359542350569
sg17
F-0.16689070458730987
sg18
I00
sg19
F0.3084199149295356
sg20
F-0.001493439077366923
sg21
F-0.3955559078149721
sg22
F0.050873976775730384
ssS'BERGSIEKER RICHARD P'
p71
(dp72
g3
F0.08290242734662079
sg4
F-0.9091078323508924
sg5
F0.12121030883084911
sg6
F-0.7760110351728682
sg7
F-0.16025692315486384
sg8
F0.11189395980087655
sg9
F-0.31070398104524727
sg10
F-0.3348110253855279
sg11
F0.5268553676225503
sg12
F-0.1735340709885537
sg13
F-0.4105796439072099
sg14
F-0.3763883699641694
sg15
F0.2050196202567621
sg16
F-0.5328340703112139
sg17
F-0.7565658708939695
sg18
I00
sg19
F-0.5852507133807561
sg20
F-1.0380351889092871
sg21
F-0.06399498963726948
sg22
F-1.0506527578785474
ssS'URQUHART JOHN A'
p73
(dp74
g3
F-0.9494894516130448
sg4
F0.09003135814019478
sg5
F-0.565337394995293
sg6
F-0.4692131540861002
sg7
F-0.20420961364235962
sg8
F-0.244743313711013
sg9
F-0.5513509600448888
sg10
F-0.44174776729088644
sg11
F4.232373363792974
sg12
F-0.5904892595450129
sg13
F-0.4105796439072099
sg14
F0.08122888796599614
sg15
F-0.24255802554569192
sg16
F0.03309359542350569
sg17
F-0.16689070458730987
sg18
I00
sg19
F0.24097147847842135
sg20
F-0.001493439077366923
sg21
F-0.3955559078149721
sg22
F0.050873976775730384
ssS'BIBI PHILIPPE A'
p75
(dp76
g3
F0.22410765326429027
sg4
F-0.15611355702423052
sg5
F0.2646518587534903
sg6
F0.35512409286763447
sg7
F0.0006812226525452674
sg8
F1.0941890073484721
sg9
F0.41123695595367726
sg10
F-0.14266248128670522
sg11
F0.076108918114644
sg12
F0.8766621121372702
sg13
F-0.10554188629033869
sg14
F-0.39064754152074793
sg15
F0.20331442689314738
sg16
F-0.40803532013387905
sg17
F-0.6345945236014471
sg18
I00
sg19
F0.3084199149295356
sg20
F0.3469037323978189
sg21
F-0.20540436406373067
sg22
F-0.6666342632284322
ssS'PIRO JIM'
p77
(dp78
g3
F-0.9494894516130448
sg4
F-1.1090450378093606
sg5
F-0.565337394995293
sg6
F-0.42253130766021113
sg7
F-0.22996615114962227
sg8
F-2.3399309667240846
sg9
F-0.5513509600448888
sg10
F-0.4340745882051524
sg11
F-0.7669417389757399
sg12
F-0.5904892595450129
sg13
F-0.4105796439072099
sg14
F-0.4086591266448471
sg15
F-0.24255802554569192
sg16
F-0.517234226539047
sg17
F-1.0858526497248537
sg18
I00
sg19
F0.3084199149295356
sg20
F-1.326825716471059
sg21
F-0.3717649613387878
sg22
F-1.1314987567522559
ssS'RIEKER PAULA H'
p79
(dp80
g3
F0.41955243080959664
sg4
F-0.3277519580178079
sg5
F0.5170355740119517
sg6
F2.5346283639700657
sg7
F-0.10616003902384222
sg8
F1.6048166664088086
sg9
F0.12246058115410743
sg10
F-0.13048521874769925
sg11
F-0.03950745872847824
sg12
F0.2899010608908577
sg13
F-0.07026596305522907
sg14
F-0.3591272675535744
sg15
F-0.24051556420720988
sg16
F0.21595843075279483
sg17
F-0.25488704915482324
sg18
I01
sg19
F0.12446628908784511
sg20
F0.24896607522469627
sg21
F-0.2528982429869827
sg22
F-0.4240962666073068
ssS'WHALEY DAVID A'
p81
(dp82
g3
F-0.9494894516130448
sg4
F0.09003135814019478
sg5
F-0.565337394995293
sg6
F-0.4692131540861002
sg7
F-0.22996615114962227
sg8
F-0.244743313711013
sg9
F-0.5513509600448888
sg10
F-0.4257347262587223
sg11
F-0.7669417389757399
sg12
F-0.5904892595450129
sg13
F-0.39003518129910897
sg14
F0.08122888796599614
sg15
F-0.24255802554569192
sg16
F0.03309359542350569
sg17
F-0.16689070458730987
sg18
I00
sg19
F0.3084199149295356
sg20
F-0.001493439077366923
sg21
F-0.3955559078149721
sg22
F0.050873976775730384
ssS'BECK SALLY W'
p83
(dp84
g3
F0.3213740628224095
sg4
F3.3553989622278824
sg5
F0.6622711218847017
sg6
F-0.2733421894168999
sg7
F-0.12080725617600256
sg8
F-0.9786781773748408
sg9
F0.12246058115410743
sg10
F-0.42130493495878335
sg11
F0.04578366949864352
sg12
F0.3579140960203673
sg13
F-0.4105796439072099
sg14
F2.838679574687533
sg15
F-0.24196518804949663
sg16
F5.488705625745189
sg17
F-0.4651819584712338
sg18
I00
sg19
F0.3084199149295356
sg20
F1.9829648515847265
sg21
F-0.3321722275436614
sg22
F1.7789572027012488
ssS'HAUG DAVID L'
p85
(dp86
g3
F-0.9494894516130448
sg4
F-0.7922214660828648
sg5
F-0.565337394995293
sg6
F1.3076589375333205
sg7
F-0.22991264564215275
sg8
F1.0529020650127507
sg9
F-0.5513509600448888
sg10
F-0.08207982560267842
sg11
F-0.7565563798606713
sg12
F-0.5904892595450129
sg13
F-0.4105796439072099
sg14
F-0.4064076785043347
sg15
F-0.24255802554569192
sg16
F-0.42363516390604594
sg17
F-0.8657534589879801
sg18
I00
sg19
F0.3084199149295356
sg20
F-0.7391997734323231
sg21
F0.7196064850206664
sg22
F-1.0506527578785474
ssS'ECHOLS JOHN B'
p87
(dp88
g3
F0.05171454781759268
sg4
F0.09003135814019478
sg5
F-0.43909106015214405
sg6
F-0.4692131540861002
sg7
F0.0733057686237638
sg8
F-0.244743313711013
sg9
F-0.3588333768451756
sg10
F-0.2780875064262749
sg11
F-0.29621167213904903
sg12
F-0.24653446048262134
sg13
F-0.2854127999467261
sg14
F0.08122888796599614
sg15
F-0.18623322632678374
sg16
F0.03309359542350569
sg17
F-0.16689070458730987
sg18
I00
sg19
F0.3084199149295356
sg20
F-0.001493439077366923
sg21
F-0.1906074454886457
sg22
F0.050873976775730384
ssS'MENDELSOHN JOHN'
p89
(dp90
g3
F-0.9494894516130448
sg4
F0.09003135814019478
sg5
F-0.565337394995293
sg6
F-0.4692131540861002
sg7
F-0.2299494799599265
sg8
F-0.244743313711013
sg9
F-0.5513509600448888
sg10
F-0.44174776729088644
sg11
F-0.7637058797146238
sg12
F-0.5904892595450129
sg13
F-0.4105796439072099
sg14
F0.08122888796599614
sg15
F-0.24255802554569192
sg16
F0.03309359542350569
sg17
F-0.16689070458730987
sg18
I00
sg19
F0.11756802811878173
sg20
F-0.001493439077366923
sg21
F-0.3955559078149721
sg22
F0.050873976775730384
ssS'HICKERSON GARY J'
p91
(dp92
g3
F0.21401567956430356
sg4
F-0.33267348922909323
sg5
F0.8224625221373633
sg6
F-0.5665415670172196
sg7
F0.004533957119871312
sg8
F0.43548113221604784
sg9
F1.0850484971526735
sg10
F-0.370197610813613
sg11
F1.3942842887409375
sg12
F1.9253018146356164
sg13
F-0.4105796439072099
sg14
F-0.4004038167963016
sg15
F-0.2405302280322041
sg16
F-0.517234226539047
sg17
F-0.13042207175342477
sg18
I00
sg19
F0.3084199149295356
sg20
F-0.20054265898014864
sg21
F-0.17371227245942067
sg22
F-0.3230387680151713
ssS'CLINE KENNETH W'
p93
(dp94
g3
F-0.9494894516130448
sg4
F0.09003135814019478
sg5
F-0.565337394995293
sg6
F-0.4692131540861002
sg7
F-0.22996615114962227
sg8
F-0.244743313711013
sg9
F-0.5513509600448888
sg10
F-0.41100606354553415
sg11
F-0.7669417389757399
sg12
F-0.5904892595450129
sg13
F-0.4105796439072099
sg14
F0.08122888796599614
sg15
F-0.24255802554569192
sg16
F0.03309359542350569
sg17
F-0.16689070458730987
sg18
I00
sg19
F0.3084199149295356
sg20
F-0.001493439077366923
sg21
F-0.06256815649096187
sg22
F0.050873976775730384
ssS'RICE KENNETH D'
p95
(dp96
g3
F1.3613692578412921
sg4
F-0.5879779208145219
sg5
F5.32336733837696
sg6
F0.48080577376102346
sg7
F-0.17307571631282379
sg8
F1.6374426068118824
sg9
F1.1331778929526017
sg10
F3.2148761713642773
sg11
F0.25956901987157266
sg12
F0.7134537472526661
sg13
F3.7088381739751153
sg14
F-0.4071581612178388
sg15
F-0.059428847105251446
sg16
F-0.47043469522254644
sg17
F0.3773813625054231
sg18
I01
sg19
F-6.138025195559047
sg20
F-0.24574465459851294
sg21
F0.9866988871510324
sg22
F-0.28261576857831705
ssS'HAYES ROBERT E'
p97
(dp98
g3
F-0.9494894516130448
sg4
F-0.8346696727802012
sg5
F-0.565337394995293
sg6
F-0.7760110351728682
sg7
F-0.22906939884443317
sg8
F-2.130783292759493
sg9
F-0.5513509600448888
sg10
F-0.41718626232716927
sg11
F-0.7669417389757399
sg12
F-0.5904892595450129
sg13
F-0.4105796439072099
sg14
F-0.4116610574988636
sg15
F-0.24255802554569192
sg16
F-0.5328340703112139
sg17
F-0.08492537756430919
sg18
I00
sg19
F0.3084199149295356
sg20
F-1.2678119999693056
sg21
F-0.3194021463248047
sg22
F-0.8081147612574221
ssS'KOPPER MICHAEL J'
p99
(dp100
g3
F0.28278064135131165
sg4
F0.3422793626043293
sg5
F-0.05279196850963064
sg6
F0.48020800120029394
sg7
F0.06883248291296498
sg8
F0.6813969157341903
sg9
F0.21871937275396403
sg10
F-0.28196578392417815
sg11
F1.815929868812725
sg12
F0.5273465863813025
sg13
F-0.4105796439072099
sg14
F-0.19525400646913635
sg15
F0.7079741537338544
sg16
F0.5078983642033458
sg17
F0.18966411212547843
sg18
I01
sg19
F0.3084199149295356
sg20
F0.9081618446591756
sg21
F0.09985343577814489
sg22
F0.844897179999653
ssS'LEFF DANIEL P'
p101
(dp102
g3
F0.5543959226256958
sg4
F0.5913439956897353
sg5
F0.07255102373284597
sg6
F0.48080577376102346
sg7
F0.07014094601773531
sg8
F1.6028655862771277
sg9
F0.41123695595367726
sg10
F-0.3832665414025573
sg11
F-0.7669417389757399
sg12
F0.5544414856553835
sg13
F-0.4105796439072099
sg14
F-0.37338643911015285
sg15
F-0.23932884179874828
sg16
F-0.314436257500878
sg17
F-0.33728531879117923
sg18
I00
sg19
F0.3084199149295356
sg20
F2.0244000142348937
sg21
F-0.2142329255900908
sg22
F0.22267172438236088
ssS'CHRISTODOULOU DIOMEDES'
p103
(dp104
g3
F-0.9494894516130448
sg4
F0.09003135814019478
sg5
F-0.565337394995293
sg6
F-0.4692131540861002
sg7
F-0.22996615114962227
sg8
F-0.244743313711013
sg9
F-0.5513509600448888
sg10
F0.5441456046754718
sg11
F-0.7669417389757399
sg12
F-0.5904892595450129
sg13
F0.6564460675480265
sg14
F0.08122888796599614
sg15
F-0.24255802554569192
sg16
F0.03309359542350569
sg17
F-0.16689070458730987
sg18
I00
sg19
F0.3084199149295356
sg20
F-0.001493439077366923
sg21
F0.08260168019667027
sg22
F0.050873976775730384
ssS'BERBERIAN DAVID'
p105
(dp106
g3
F0.2403525994977474
sg4
F0.09003135814019478
sg5
F-0.565337394995293
sg6
F-0.4692131540861002
sg7
F-0.20423011469995847
sg8
F-0.244743313711013
sg9
F-0.5513509600448888
sg10
F-0.03725846112118062
sg11
F-0.5069360745622737
sg12
F-0.5904892595450129
sg13
F-0.07252232018966283
sg14
F0.08122888796599614
sg15
F-0.24255802554569192
sg16
F0.03309359542350569
sg17
F-0.16689070458730987
sg18
I00
sg19
F0.3084199149295356
sg20
F-0.001493439077366923
sg21
F0.04160726012069815
sg22
F0.050873976775730384
ssS'DETMERING TIMOTHY J'
p107
(dp108
g3
F0.20693976115081258
sg4
F0.09003135814019478
sg5
F0.03427182999939288
sg6
F-0.4692131540861002
sg7
F-0.09427809914088012
sg8
F-0.244743313711013
sg9
F-0.1422510957454982
sg10
F-0.11280790371292154
sg11
F0.3755570832514447
sg12
F0.04230689249604069
sg13
F0.011444674522830316
sg14
F0.08122888796599614
sg15
F-0.24140063078721877
sg16
F0.03309359542350569
sg17
F-0.16689070458730987
sg18
I00
sg19
F-1.117664013581844
sg20
F-0.001493439077366923
sg21
F-0.23709645566804063
sg22
F0.050873976775730384
ssS'WAKEHAM JOHN'
p109
(dp110
g3
F-0.9494894516130448
sg4
F0.09003135814019478
sg5
F-0.565337394995293
sg6
F-0.4692131540861002
sg7
F-0.20596515750322786
sg8
F-0.244743313711013
sg9
F-0.5513509600448888
sg10
F-0.44174776729088644
sg11
F1.5019422009148282
sg12
F-0.5904892595450129
sg13
F-0.4105796439072099
sg14
F0.08122888796599614
sg15
F-0.24255802554569192
sg16
F0.03309359542350569
sg17
F-0.16689070458730987
sg18
I00
sg19
F0.3084199149295356
sg20
F-0.001493439077366923
sg21
F-0.3955559078149721
sg22
F0.050873976775730384
ssS'POWERS WILLIAM'
p111
(dp112
g3
F-0.9494894516130448
sg4
F-0.7430061539700111
sg5
F-0.565337394995293
sg6
F-0.7760110351728682
sg7
F-0.22996615114962227
sg8
F-2.486818277073468
sg9
F-0.5513509600448888
sg10
F-0.44174776729088644
sg11
F-0.7669417389757399
sg12
F-0.5904892595450129
sg13
F-0.4105796439072099
sg14
F-0.40115429950980575
sg15
F-0.24255802554569192
sg16
F-0.5328340703112139
sg17
F-1.0858526497248537
sg18
I00
sg19
F0.27622803040723976
sg20
F-1.315525217566468
sg21
F-0.3955559078149721
sg22
F-1.1314987567522559
ssS'GOLD JOSEPH'
p113
(dp114
g3
F0.5496383563632089
sg4
F0.09003135814019478
sg5
F0.02834037344353891
sg6
F-0.4692131540861002
sg7
F0.011875701246904307
sg8
F-0.244743313711013
sg9
F0.17058997695403574
sg10
F-0.29939053807961186
sg11
F-0.7669417389757399
sg12
F0.2709339258541397
sg13
F-0.3197353592238168
sg14
F0.08122888796599614
sg15
F0.6155773924452117
sg16
F0.03309359542350569
sg17
F-0.16689070458730987
sg18
I00
sg19
F0.3084199149295356
sg20
F-0.001493439077366923
sg21
F-0.17371227245942067
sg22
F0.050873976775730384
ssS'BANNANTINE JAMES M'
p115
(dp116
g3
F-0.9468689445608436
sg4
F-0.7965278058927395
sg5
F-0.565337394995293
sg6
F-0.7760110351728682
sg7
F-0.1267628134084674
sg8
F1.0509870589099595
sg9
F-0.5513509600448888
sg10
F0.40879795367812893
sg11
F0.4640184789979032
sg12
F-0.5904892595450129
sg13
F0.43147673074590376
sg14
F-0.3989028513692934
sg15
F0.6629572584176396
sg16
F-0.5328340703112139
sg17
F1.0866546892313813
sg18
I00
sg19
F0.2990309218665757
sg20
F-0.7467334393687172
sg21
F0.48838256591052104
sg22
F-0.3432502677335984
ssS'DUNCAN JOHN H'
p117
(dp118
g3
F-0.9494894516130448
sg4
F0.09003135814019478
sg5
F-0.565337394995293
sg6
F-0.4692131540861002
sg7
F-0.22123720633945854
sg8
F-0.244743313711013
sg9
F-0.5513509600448888
sg10
F-0.381446221435956
sg11
F-0.7669417389757399
sg12
F-0.5904892595450129
sg13
F-0.33321377370561
sg14
F0.08122888796599614
sg15
F-0.24255802554569192
sg16
F0.03309359542350569
sg17
F-0.16689070458730987
sg18
I00
sg19
F0.26243150846911295
sg20
F-0.001493439077366923
sg21
F-0.3955559078149721
sg22
F0.050873976775730384
ssS'SHAPIRO RICHARD S'
p119
(dp120
g3
F0.5287402246513148
sg4
F8.174808400879083
sg5
F0.47921294308231766
sg6
F-0.473444025614709
sg7
F-0.1108405881741019
sg8
F-1.2514822448230594
sg9
F0.07433118535417914
sg10
F-0.2816463925488228
sg11
F2.2451840909309206
sg12
F0.16663191682953563
sg13
F-0.2840810872273716
sg14
F0.49116964684660747
sg15
F-0.24181959721562535
sg16
F0.48115577487963124
sg17
F-0.9318384262509459
sg18
I00
sg19
F0.3084199149295356
sg20
F4.353558399570054
sg21
F-0.20486018589513538
sg22
F0.3641522224113507
ssS'SHERRIFF JOHN R'
p121
(dp122
g3
F1.406110158120384
sg4
F0.8158888572046304
sg5
F0.022665404079864393
sg6
F0.63790787487776
sg7
F0.2583857120445924
sg8
F0.33879682751754725
sg9
F0.8925309139529602
sg10
F0.06580422074476076
sg11
F-0.7669417389757399
sg12
F0.505947882260672
sg13
F-0.02857684101411408
sg14
F-0.351622440418533
sg15
F1.6974513573659333
sg16
F-0.17403766355137637
sg17
F-0.8088467338021677
sg18
I00
sg19
F0.3084199149295356
sg20
F1.3099573612668582
sg21
F0.2549552784486048
sg22
F-0.5655767646362967
ssS'SHELBY REX'
p123
(dp124
g3
F0.21432332819097707
sg4
F-1.0063080737737784
sg5
F-0.3957188603936335
sg6
F1.2542315023357262
sg7
F-0.004242185180039206
sg8
F-0.7862831966230815
sg9
F-0.3588333768451756
sg10
F-0.03725846112118062
sg11
F-0.26660793268262173
sg12
F-0.2945920788123722
sg13
F-0.07252232018966283
sg14
F-0.391398024234252
sg15
F1.4053668169701514
sg16
F-0.314436257500878
sg17
F0.7358349856073373
sg18
I01
sg19
F0.3007545673407123
sg20
F-1.2163319494039462
sg21
F0.04160726012069815
sg22
F-0.8687492604127034
ssS'LEMAISTRE CHARLES'
p125
(dp126
g3
F-0.9494894516130448
sg4
F0.09003135814019478
sg5
F-0.565337394995293
sg6
F-0.4692131540861002
sg7
F-0.2201107746032582
sg8
F-0.244743313711013
sg9
F-0.5513509600448888
sg10
F-0.3747748509506256
sg11
F-0.7669417389757399
sg12
F-0.5904892595450129
sg13
F-0.3246545174590696
sg14
F0.08122888796599614
sg15
F-0.24255802554569192
sg16
F0.03309359542350569
sg17
F-0.16689070458730987
sg18
I00
sg19
F0.26243150846911295
sg20
F-0.001493439077366923
sg21
F-0.3955559078149721
sg22
F0.050873976775730384
ssS'DEFFNER JOSEPH M'
p127
(dp128
g3
F0.18288273729003857
sg4
F-0.7054794784839602
sg5
F0.27832202277673124
sg6
F-0.47029883840516473
sg7
F-0.09382009199694105
sg8
F0.8375962134852079
sg9
F0.026201789554250832
sg10
F-0.41592216025091516
sg11
F0.14316554212709784
sg12
F0.3218492555280589
sg13
F-0.406963062623112
sg14
F-0.3651311292616074
sg15
F-0.21579340268300926
sg16
F-0.47043469522254644
sg17
F3.992381304619086
sg18
I00
sg19
F0.3084199149295356
sg20
F-0.6374952832910035
sg21
F-0.3242228004338489
sg22
F1.1928237108668625
ssS'KISHKILL JOSEPH G'
p129
(dp130
g3
F0.007770237732566097
sg4
F0.09003135814019478
sg5
F-0.565337394995293
sg6
F-0.4692131540861002
sg7
F-0.15056442863755434
sg8
F-0.244743313711013
sg9
F-0.5513509600448888
sg10
F-0.27396656285547594
sg11
F1.776596687659023
sg12
F-0.5904892595450129
sg13
F-0.4105796439072099
sg14
F0.08122888796599614
sg15
F0.24486437501429786
sg16
F0.03309359542350569
sg17
F-0.16689070458730987
sg18
I00
sg19
F0.21452630522741994
sg20
F-0.001493439077366923
sg21
F0.12465528624589717
sg22
F0.050873976775730384
ssS'MCCARTY DANNY J'
p131
(dp132
g3
F-0.9494894516130448
sg4
F-0.26315686086968737
sg5
F-0.565337394995293
sg6
F-0.7234000989849378
sg7
F-0.22996615114962227
sg8
F-1.0062718023781367
sg9
F-0.5513509600448888
sg10
F-0.31864161396949253
sg11
F-0.7669417389757399
sg12
F-0.5904892595450129
sg13
F-0.27231481535256846
sg14
F-0.2593130666575248
sg15
F-0.24255802554569192
sg16
F-0.5016343827668802
sg17
F-0.5357966645005489
sg18
I00
sg19
F0.3084199149295356
sg20
F-0.6927421668245598
sg21
F-0.3480001676026838
sg22
F-0.626211263791578
ssS'MCCONNELL MICHAEL S'
p133
(dp134
g3
F1.0559291088092495
sg4
F0.9032460362049457
sg5
F0.3242886786675068
sg6
F-0.375864764494791
sg7
F0.006738158741268149
sg8
F0.3286068884643337
sg9
F0.5074957475535339
sg10
F0.061310518727762414
sg11
F1.0119937537367785
sg12
F0.3539664764418993
sg13
F-0.07281076429483947
sg14
F1.6371567503674176
sg15
F-0.24199242086734304
sg16
F2.493535621489155
sg17
F-0.21451373872417537
sg18
I00
sg19
F0.3084199149295356
sg20
F1.417939906355173
sg21
F0.3479207253746638
sg22
F0.7279592173430388
ssS'DELAINEY DAVID W'
p135
(dp136
g3
F1.0566158244937887
sg4
F0.7580608654720272
sg5
F0.5084753910666707
sg6
F0.3462784613678064
sg7
F0.30486127169165605
sg8
F0.4185860616773111
sg9
F2.336412787950809
sg10
F0.1445212990794878
sg11
F1.1171591797230527
sg12
F1.984417385780179
sg13
F0.06622990814443296
sg14
F1.8825645976832688
sg15
F-0.24081826745173363
sg16
F8.967470786938396
sg17
F-0.41306642314167485
sg18
I01
sg19
F0.3084199149295356
sg20
F1.3024236953304642
sg21
F0.2699045870283889
sg22
F0.20246022466393376
ssS'SULLIVAN-SHAKLOVITZ COLLEEN'
p137
(dp138
g3
F-0.05522631230431349
sg4
F0.09003135814019478
sg5
F-0.39527985933720594
sg6
F-0.4692131540861002
sg7
F-0.11739551973339896
sg8
F-0.244743313711013
sg9
F-0.4550921684450322
sg10
F-0.22075699786489905
sg11
F-0.7669417389757399
sg12
F-0.3979458652646526
sg13
F-0.12705219961425843
sg14
F0.08122888796599614
sg15
F-0.24238834414218724
sg16
F0.03309359542350569
sg17
F-0.16689070458730987
sg18
I00
sg19
F0.3084199149295356
sg20
F-0.001493439077366923
sg21
F-0.3955559078149721
sg22
F0.050873976775730384
ssS'WROBEL BRUCE'
p139
(dp140
g3
F-0.9494894516130448
sg4
F0.09003135814019478
sg5
F-0.565337394995293
sg6
F-0.4692131540861002
sg7
F-0.22996615114962227
sg8
F-0.244743313711013
sg9
F-0.5513509600448888
sg10
F-0.4191794980917029
sg11
F-0.7669417389757399
sg12
F-0.5904892595450129
sg13
F-0.38162493369564676
sg14
F0.08122888796599614
sg15
F-0.24255802554569192
sg16
F0.03309359542350569
sg17
F-0.16689070458730987
sg18
I00
sg19
F0.3084199149295356
sg20
F-0.001493439077366923
sg21
F-0.3955559078149721
sg22
F0.050873976775730384
ssS'LINDHOLM TOD A'
p141
(dp142
g3
F0.3495403933394655
sg4
F0.09003135814019478
sg5
F-0.17727904832094676
sg6
F-0.4692131540861002
sg7
F-0.13130323445074377
sg8
F-0.244743313711013
sg9
F-0.3588333768451756
sg10
F0.05529723397621399
sg11
F0.49519642025703564
sg12
F-0.32539225520542664
sg13
F0.1199745786160477
sg14
F0.08122888796599614
sg15
F-0.2398033212789187
sg16
F0.03309359542350569
sg17
F-0.16689070458730987
sg18
I00
sg19
F0.3084199149295356
sg20
F-0.001493439077366923
sg21
F-0.13662014296582456
sg22
F0.050873976775730384
ssS'MEYER JEROME J'
p143
(dp144
g3
F-0.9494894516130448
sg4
F0.09003135814019478
sg5
F-0.565337394995293
sg6
F-0.4692131540861002
sg7
F-0.22972385568316556
sg8
F-0.244743313711013
sg9
F-0.5513509600448888
sg10
F-0.44174776729088644
sg11
F-0.7199124601199238
sg12
F-0.5904892595450129
sg13
F-0.4105796439072099
sg14
F0.08122888796599614
sg15
F-0.24255802554569192
sg16
F0.03309359542350569
sg17
F-0.16689070458730987
sg18
I00
sg19
F0.23788105756428096
sg20
F-0.001493439077366923
sg21
F-0.3955559078149721
sg22
F0.050873976775730384
ssS'LAY KENNETH L'
p145
(dp146
g3
F4.941547744872239
sg4
F1.4839867191366196
sg5
F-0.4504630701464723
sg6
F1.7376225826949152
sg7
F11.435337591804222
sg8
F-0.08241980771219147
sg9
F6.1867644519450735
sg10
F7.5243951256646175
sg11
F1.415776516130648
sg12
F1.4554852969818048
sg13
F6.737752886499547
sg14
F-0.39364947237476444
sg15
F10.60838862042921
sg16
F-0.2832365699565443
sg17
F-0.17827185965089393
sg18
I01
sg19
F-0.24344096259553583
sg20
F1.6966855460017527
sg21
F7.02865075233663
sg22
F1.3545157086142794
ssS'BUTTS ROBERT H'
p147
(dp148
g3
F0.4872076600503895
sg4
F0.09003135814019478
sg5
F0.4370440004148529
sg6
F-0.4692131540861002
sg7
F-0.08673111915151141
sg8
F-0.244743313711013
sg9
F0.17058997695403574
sg10
F-0.3740058136166694
sg11
F-0.5612023089277483
sg12
F0.3083664847754906
sg13
F-0.4105796439072099
sg14
F0.08122888796599614
sg15
F-0.08475850995064162
sg16
F0.03309359542350569
sg17
F-0.16689070458730987
sg18
I00
sg19
F0.17045469554826773
sg20
F-0.001493439077366923
sg21
F-0.18551973166839622
sg22
F0.050873976775730384
ssS'OLSON CINDY K'
p149
(dp150
g3
F0.8583747406810391
sg4
F-0.4163395198209446
sg5
F0.3991387036810593
sg6
F0.855433861039395
sg7
F-0.08110177654985018
sg8
F0.6167580485882641
sg9
F0.17058997695403574
sg10
F-0.018904892839142127
sg11
F0.6277791943070911
sg12
F0.12382515476320817
sg13
F-0.06989219277175343
sg14
F-0.38164174895869835
sg15
F-0.24153993712466396
sg16
F-0.2988364137287111
sg17
F-0.5532646586259152
sg18
I00
sg19
F0.3084199149295356
sg20
F-0.255789542513705
sg21
F0.09215698613487901
sg22
F-0.7272687623837136
ssS'MCDONALD REBECCA'
p151
(dp152
g3
F-0.9494894516130448
sg4
F-0.5947450262300393
sg5
F-0.565337394995293
sg6
F-0.3409590628495979
sg7
F-0.22996615114962227
sg8
F0.9796932111177116
sg9
F-0.5513509600448888
sg10
F-0.1673913869103344
sg11
F-0.7669417389757399
sg12
F-0.5904892595450129
sg13
F-0.25297574109741344
sg14
F-0.4109105747853595
sg15
F-0.24255802554569192
sg16
F-0.517234226539047
sg17
F0.8185962204598066
sg18
I00
sg19
F0.3084199149295356
sg20
F-0.4265526370719701
sg21
F0.07422022993822253
sg22
F-0.04007777195719164
ssS'CUMBERLAND MICHAEL S'
p153
(dp154
g3
F0.06629489523172702
sg4
F0.09003135814019478
sg5
F0.11827787671090198
sg6
F-0.4692131540861002
sg7
F-0.1389554231642736
sg8
F-0.244743313711013
sg9
F-0.23850988734535483
sg10
F-0.40801783199815145
sg11
F-0.2784144462029103
sg12
F-0.039585421086832974
sg13
F-0.4105796439072099
sg14
F0.08122888796599614
sg15
F-0.2418112178870572
sg16
F0.03309359542350569
sg17
F-0.16689070458730987
sg18
I00
sg19
F0.3084199149295356
sg20
F-0.001493439077366923
sg21
F-0.2909751237320664
sg22
F0.050873976775730384
ssS'GAHN ROBERT S'
p155
(dp156
g3
F0.10534978964283515
sg4
F0.09003135814019478
sg5
F0.39683048750546124
sg6
F-0.4692131540861002
sg7
F-0.1285213986350234
sg8
F-0.244743313711013
sg9
F-0.06055625931469993
sg10
F-0.39006654437171545
sg11
F0.3280030704613935
sg12
F0.241786288234451
sg13
F-0.39325697292410144
sg14
F0.08122888796599614
sg15
F-0.16238146755759775
sg16
F0.03309359542350569
sg17
F-0.16689070458730987
sg18
I00
sg19
F0.30650311814826514
sg20
F-0.001493439077366923
sg21
F-0.27717955333967387
sg22
F0.050873976775730384
ssS'MCCLELLAN GEORGE'
p157
(dp158
g3
F0.497629257278955
sg4
F-0.07183233503096854
sg5
F0.5944859905911308
sg6
F-0.7760110351728682
sg7
F-0.08141650157694456
sg8
F1.142437524926987
sg9
F0.31497816435382064
sg10
F-0.28799528966990406
sg11
F4.234712802583106
sg12
F0.48036977398053415
sg13
F-0.3051154469664869
sg14
F-0.3838931970992107
sg15
F-0.18852497269016769
sg16
F-0.5328340703112139
sg17
F-0.14576155350984676
sg18
I00
sg19
F0.0784778826274225
sg20
F0.513899993987887
sg21
F-0.17371227245942067
sg22
F-0.08050077139404586
ssS'HERMANN ROBERT J'
p159
(dp160
g3
F0.4935089631717204
sg4
F0.09003135814019478
sg5
F0.3515580879794265
sg6
F-0.4692131540861002
sg7
F-0.08381602646139853
sg8
F-0.244743313711013
sg9
F0.12246058115410743
sg10
F-0.33337011447273884
sg11
F0.29033154676610234
sg12
F0.24477930984976062
sg13
F-0.3715585257826639
sg14
F0.08122888796599614
sg15
F0.1936289704844585
sg16
F0.03309359542350569
sg17
F-0.16689070458730987
sg18
I00
sg19
F-0.20665023742719774
sg20
F-0.001493439077366923
sg21
F-0.1538281430013955
sg22
F0.050873976775730384
ssS'SCRIMSHAW MATTHEW'
p161
(dp162
g3
F-0.9494894516130448
sg4
F0.09003135814019478
sg5
F-0.565337394995293
sg6
F-0.4692131540861002
sg7
F-0.22996615114962227
sg8
F-0.244743313711013
sg9
F-0.5513509600448888
sg10
F-0.31854007054594125
sg11
F-0.7669417389757399
sg12
F-0.5904892595450129
sg13
F-0.25250623900413893
sg14
F0.08122888796599614
sg15
F-0.24255802554569192
sg16
F0.03309359542350569
sg17
F-0.16689070458730987
sg18
I00
sg19
F0.3084199149295356
sg20
F-0.001493439077366923
sg21
F-0.3955559078149721
sg22
F0.050873976775730384
ssS'GATHMANN WILLIAM D'
p163
(dp164
g3
F-0.9494894516130448
sg4
F0.09003135814019478
sg5
F-0.565337394995293
sg6
F-0.4692131540861002
sg7
F-0.22996615114962227
sg8
F-0.244743313711013
sg9
F-0.5513509600448888
sg10
F-0.12619103495908437
sg11
F-0.7669417389757399
sg12
F-0.5904892595450129
sg13
F-0.04559878924687605
sg14
F0.08122888796599614
sg15
F-0.24255802554569192
sg16
F0.03309359542350569
sg17
F-0.16689070458730987
sg18
I00
sg19
F0.3084199149295356
sg20
F-0.001493439077366923
sg21
F-0.26277391999117594
sg22
F0.050873976775730384
ssS'HAEDICKE MARK E'
p165
(dp166
g3
F1.1058505922125046
sg4
F1.3215761891642024
sg5
F-0.05889290288155119
sg6
F-0.598269554465834
sg7
F0.2047311776563766
sg8
F-0.5384320586899324
sg9
F0.5556251433534621
sg10
F-0.3114779363108744
sg11
F0.8984107208888171
sg12
F0.3729139975000172
sg13
F-0.2838910803961838
sg14
F1.0360200968506075
sg15
F-0.18769227691370963
sg16
F0.41875639979096385
sg17
F0.3297765927671114
sg18
I00
sg19
F-1.4105972859809273
sg20
F0.9885209479807121
sg21
F-0.1319317613691099
sg22
F2.506571192564625
ssS'BOWEN JR RAYMOND M'
p167
(dp168
g3
F0.5810679598131948
sg4
F-0.0017005152701519922
sg5
F0.2940826322707632
sg6
F2.3660309871618614
sg7
F0.07074482607151232
sg8
F1.20876000084095
sg9
F0.7481427265531754
sg10
F-0.4008619404167385
sg11
F0.6740432361754812
sg12
F0.9282320871016159
sg13
F-0.4105796439072099
sg14
F-0.4004038167963016
sg15
F-0.24086016409457428
sg16
F-0.2988364137287111
sg17
F1.2898681630996898
sg18
I01
sg19
F0.3068875812262743
sg20
F0.669595756673364
sg21
F-0.2687880443350414
sg22
F1.6981112038275403
ssS'GILLIS JOHN'
p169
(dp170
g3
F-0.9494894516130448
sg4
F0.09003135814019478
sg5
F-0.565337394995293
sg6
F-0.4692131540861002
sg7
F-0.22996615114962227
sg8
F-0.244743313711013
sg9
F-0.5513509600448888
sg10
F-0.42785594566731655
sg11
F-0.7669417389757399
sg12
F-0.5904892595450129
sg13
F-0.40853951579534364
sg14
F0.08122888796599614
sg15
F-0.24255802554569192
sg16
F0.03309359542350569
sg17
F-0.16689070458730987
sg18
I00
sg19
F0.3084199149295356
sg20
F-0.001493439077366923
sg21
F-0.35741414815699674
sg22
F0.050873976775730384
ssS'FITZGERALD JAY L'
p171
(dp172
g3
F0.1446244330729958
sg4
F-0.568906987370791
sg5
F-0.14492878471317172
sg6
F2.051826784928388
sg7
F-0.07059216845110096
sg8
F0.8346302858125059
sg9
F-0.21444518944539068
sg10
F-0.17876717012702914
sg11
F-0.24505011355113182
sg12
F-0.03968223733906631
sg13
F-0.2722969176663887
sg14
F-0.4086591266448471
sg15
F0.05638918494738958
sg16
F-0.40803532013387905
sg17
F-1.0521675972963738
sg18
I00
sg19
F0.3084199149295356
sg20
F-0.4227858041037731
sg21
F0.0856419362310127
sg22
F-1.1112872570338288
ssS'MORAN MICHAEL P'
p173
(dp174
g3
F-0.9494894516130448
sg4
F-0.7313175173432084
sg5
F-0.565337394995293
sg6
F-0.7760110351728682
sg7
F-0.22996615114962227
sg8
F-1.7353163833069931
sg9
F-0.5513509600448888
sg10
F-0.40587649855677704
sg11
F-0.7669417389757399
sg12
F-0.5904892595450129
sg13
F-0.39818882602978406
sg14
F-0.4064076785043347
sg15
F-0.24255802554569192
sg16
F-0.5328340703112139
sg17
F-1.0858526497248537
sg18
I00
sg19
F0.3084199149295356
sg20
F-1.171129953785582
sg21
F-0.31428023276752703
sg22
F-1.1314987567522559
ssS'REDMOND BRIAN L'
p175
(dp176
g3
F-0.4174770764869073
sg4
F-0.11674130733394755
sg5
F-0.565337394995293
sg6
F0.47796229681773417
sg7
F-0.21740317063895342
sg8
F0.2343062905216267
sg9
F-0.5513509600448888
sg10
F0.8381412293365724
sg11
F-0.44578270730996417
sg12
F-0.5904892595450129
sg13
F1.1521462111371796
sg14
F-0.2548101703765
sg15
F-0.24255802554569192
sg16
F0.2315582745249617
sg17
F2.7633147056932548
sg18
I00
sg19
F0.3084199149295356
sg20
F0.004121932291889689
sg21
F-0.203793455862242
sg22
F2.9916471858068756
ssS'BAZELIDES PHILIP J'
p177
(dp178
g3
F-0.5054975460683919
sg4
F0.09003135814019478
sg5
F-0.565337394995293
sg6
F-0.4692131540861002
sg7
F-0.13307770236478017
sg8
F-0.244743313711013
sg9
F-0.5513509600448888
sg10
F-0.18227009381966455
sg11
F-0.7669417389757399
sg12
F-0.5904892595450129
sg13
F-0.0776741483452529
sg14
F0.08122888796599614
sg15
F-0.24164258389962356
sg16
F0.03309359542350569
sg17
F-0.16689070458730987
sg18
I00
sg19
F0.3084199149295356
sg20
F-0.001493439077366923
sg21
F-0.3955559078149721
sg22
F0.050873976775730384
ssS'BELDEN TIMOTHY N'
p179
(dp180
g3
F0.22616230659243128
sg4
F3.7712683495814963
sg5
F1.0564127549218738
sg6
F0.4859992316491802
sg7
F0.3897549121335688
sg8
F0.47549432508607853
sg9
F4.502234636359667
sg10
F-0.2615803739114635
sg11
F-0.3874935127820209
sg12
F7.098592457667841
sg13
F-0.21222000420183762
sg14
F-0.0574332167249132
sg15
F-0.021869554214673518
sg16
F1.151949057082806
sg17
F-0.18625814732752788
sg18
I01
sg19
F-3.985856070951673
sg20
F5.601635723032668
sg21
F-0.31630857893568304
sg22
F3.4767231790491264
ssS'DURAN WILLIAM D'
p181
(dp182
g3
F0.20799455644226467
sg4
F-0.5885931122159326
sg5
F0.043573257673972306
sg6
F0.63790787487776
sg7
F0.005825636391772248
sg8
F0.350876458592851
sg9
F0.17058997695403574
sg10
F-0.17557585173254386
sg11
F-0.20318071838196028
sg12
F0.5251922035941703
sg13
F-0.10842736790525512
sg14
F-0.4116610574988636
sg15
F-0.24091567714633816
sg16
F-0.4860345389947133
sg17
F2.6111563787530865
sg18
I00
sg19
F0.3084199149295356
sg20
F-0.5784815667892501
sg21
F-0.30048013593935136
sg22
F1.0109202134010185
ssS'THORN TERENCE H'
p183
(dp184
g3
F0.2706285205977076
sg4
F-0.981085226315941
sg5
F-0.565337394995293
sg6
F-0.7760110351728682
sg7
F-0.12729719262412087
sg8
F-1.358938600626553
sg9
F-0.5513509600448888
sg10
F0.3397466413539025
sg11
F0.24196856916077208
sg12
F-0.5904892595450129
sg13
F0.51603684645389
sg14
F-0.3898970588072438
sg15
F0.20430004541597382
sg16
F-0.5328340703112139
sg17
F-1.0858526497248537
sg18
I00
sg19
F0.3084199149295356
sg20
F-1.2389329472131283
sg21
F-0.21182285000422332
sg22
F-1.1314987567522559
ssS'FASTOW ANDREW S'
p185
(dp186
g3
F1.4715843783470808
sg4
F0.3422793626043293
sg5
F0.346068791123995
sg6
F0.48020800120029394
sg7
F0.0430902510887521
sg8
F0.6813969157341903
sg9
F0.700013330753247
sg10
F-0.15067630125016718
sg11
F0.4557101917058483
sg12
F0.3340583338371128
sg13
F-0.4105796439072099
sg14
F-0.19525400646913635
sg15
F0.04806222718280902
sg16
F0.5078983642033458
sg17
F0.18966411212547843
sg18
I01
sg19
F-2.2412785137305073
sg20
F0.9081618446591756
sg21
F0.5069208351290259
sg22
F0.844897179999653
ssS'FOY JOE'
p187
(dp188
g3
F-0.9494894516130448
sg4
F-1.1096602292107713
sg5
F-0.565337394995293
sg6
F-0.7760110351728682
sg7
F-0.20949269112831287
sg8
F-2.4132103731943118
sg9
F-0.5513509600448888
sg10
F-0.3860393581472626
sg11
F-0.7669417389757399
sg12
F-0.5904892595450129
sg13
F-0.33910669093662144
sg14
F-0.4109105747853595
sg15
F-0.24255802554569192
sg16
F-0.5328340703112139
sg17
F-1.0858526497248537
sg18
I00
sg19
F0.3084199149295356
sg20
F-1.328081327460458
sg21
F-0.3955559078149721
sg22
F-1.1314987567522559
ssS'CALGER CHRISTOPHER F'
p189
(dp190
g3
F0.37004297681706516
sg4
F0.4535411217737449
sg5
F0.7305536074063709
sg6
F0.20587709680673472
sg7
F-0.045310534563820386
sg8
F1.1418639522073852
sg9
F0.6518839349533188
sg10
F-0.42130493495878335
sg11
F0.01617993004221623
sg12
F1.0406231757435918
sg13
F-0.4105796439072099
sg14
F-0.31259733931631817
sg15
F-0.24204898133517794
sg16
F-0.14283797600704265
sg17
F1.3292022407826034
sg18
I01
sg19
F-0.1744583529049019
sg20
F1.416684295365774
sg21
F-0.3321722275436614
sg22
F2.89058968721474
ssS'LEWIS RICHARD'
p191
(dp192
g3
F-0.9494894516130448
sg4
F-0.5590639249482203
sg5
F-0.565337394995293
sg6
F-0.7760110351728682
sg7
F-0.22996615114962227
sg8
F0.8514767549934529
sg9
F-0.5513509600448888
sg10
F-0.3037919426397401
sg11
F-0.7669417389757399
sg12
F-0.5904892595450129
sg13
F-0.23358463868475907
sg14
F-0.40115429950980575
sg15
F-0.24255802554569192
sg16
F-0.5328340703112139
sg17
F-0.7546634787893793
sg18
I00
sg19
F0.3084199149295356
sg20
F-0.40269602827338896
sg21
F-0.3955559078149721
sg22
F-0.9293837595679847
ssS'KAMINSKI WINCENTY J'
p193
(dp194
g3
F0.5618399206460998
sg4
F1.6894606472077838
sg5
F0.060149299152586794
sg6
F-0.7087003075507474
sg7
F-0.10754318455272263
sg8
F-2.0103562685656415
sg9
F-0.16631579364546237
sg10
F-0.28342486235044606
sg11
F1.060553506567447
sg12
F-0.13477268741241039
sg13
F-0.23368182728296794
sg14
F10.36226877756646
sg15
F-0.23766763991011622
sg16
F2.134739214729317
sg17
F-0.8052584296260165
sg18
I00
sg19
F0.3084199149295356
sg20
F-0.5985713426196342
sg21
F-0.3321722275436614
sg22
F-0.30282726829674417
ssS'LOCKHART EUGENE E'
p195
(dp196
g3
F-0.9494894516130448
sg4
F0.09003135814019478
sg5
F-0.565337394995293
sg6
F-0.4692131540861002
sg7
F-0.22996615114962227
sg8
F-0.244743313711013
sg9
F-0.5513509600448888
sg10
F-0.44174776729088644
sg11
F-0.7669417389757399
sg12
F-0.5904892595450129
sg13
F-0.4105796439072099
sg14
F0.08122888796599614
sg15
F-0.24255802554569192
sg16
F0.03309359542350569
sg17
F-0.16689070458730987
sg18
I00
sg19
F0.3084199149295356
sg20
F-0.001493439077366923
sg21
F-0.3955559078149721
sg22
F0.050873976775730384
ssS'COX DAVID'
p197
(dp198
g3
F0.7771225408863719
sg4
F-1.081976616147291
sg5
F0.6690849672686635
sg6
F-0.09047459393619993
sg7
F-0.10590174822673148
sg8
F0.4982940877281063
sg9
F0.21871937275396403
sg10
F-0.361351167219019
sg11
F-0.15779123307062864
sg12
F0.2073018410394897
sg13
F-0.38611579613836455
sg14
F-0.3959009205152768
sg15
F-0.2420406020066098
sg16
F-0.47043469522254644
sg17
F-1.0858526497248537
sg18
I00
sg19
F0.23253904426983826
sg20
F-1.2414441691919265
sg21
F-0.20540436406373067
sg22
F-1.1314987567522559
ssS'OVERDYKE JR JERE C'
p199
(dp200
g3
F-0.4279096611664254
sg4
F0.09003135814019478
sg5
F-0.565337394995293
sg6
F-0.4692131540861002
sg7
F-0.2018293507405947
sg8
F-0.244743313711013
sg9
F-0.5513509600448888
sg10
F0.7436166299659105
sg11
F-0.35515678408478607
sg12
F-0.5904892595450129
sg13
F0.6854617547601789
sg14
F0.08122888796599614
sg15
F-0.24237368031719303
sg16
F0.03309359542350569
sg17
F-0.16689070458730987
sg18
I00
sg19
F0.3084199149295356
sg20
F-0.001493439077366923
sg21
F0.6309471873363014
sg22
F0.050873976775730384
ssS'PEREIRA PAULO V. FERRAZ'
p201
(dp202
g3
F-0.9494894516130448
sg4
F0.09003135814019478
sg5
F-0.565337394995293
sg6
F-0.4692131540861002
sg7
F-0.22681867559233126
sg8
F-0.244743313711013
sg9
F-0.5513509600448888
sg10
F-0.44174776729088644
sg11
F-0.15602025604258535
sg12
F-0.5904892595450129
sg13
F-0.4105796439072099
sg14
F0.08122888796599614
sg15
F-0.24255802554569192
sg16
F0.03309359542350569
sg17
F-0.16689070458730987
sg18
I00
sg19
F0.12216686876482398
sg20
F-0.001493439077366923
sg21
F-0.3955559078149721
sg22
F0.050873976775730384
ssS'STABLER FRANK'
p203
(dp204
g3
F0.3662687874148382
sg4
F0.09003135814019478
sg5
F0.19875758410761543
sg6
F-0.4692131540861002
sg7
F-0.10469714212803884
sg8
F-0.244743313711013
sg9
F-0.07005700204560578
sg10
F-0.3587394249464965
sg11
F-0.40588106439417404
sg12
F0.06382722168609939
sg13
F-0.4105796439072099
sg14
F0.08122888796599614
sg15
F0.130396462277197
sg16
F0.03309359542350569
sg17
F-0.16689070458730987
sg18
I00
sg19
F0.3084199149295356
sg20
F-0.001493439077366923
sg21
F-0.1381857868094818
sg22
F0.050873976775730384
ssS'SKILLING JEFFREY K'
p205
(dp206
g3
F5.155456933743433
sg4
F1.0865730738253259
sg5
F0.5307584627854868
sg6
F0.7950099759944965
sg7
F0.7480825347318302
sg8
F-0.08788547916562277
sg9
F4.839141369547081
sg10
F3.7909052485302666
sg11
F-0.12554196002909965
sg12
F0.9889398072815162
sg13
F3.595588483546183
sg14
F-0.3396147170024669
sg15
F-0.2193870872226666
sg16
F-0.06483875714620842
sg17
F-0.32087597522002065
sg18
I01
sg19
F0.3084199149295356
sg20
F1.2333650909135188
sg21
F3.0463820731710203
sg22
F0.6471132184693303
ssS'BLAKE JR. NORMAN P'
p207
(dp208
g3
F-0.9494894516130448
sg4
F0.09003135814019478
sg5
F-0.565337394995293
sg6
F-0.4692131540861002
sg7
F-0.22982208053056224
sg8
F-0.244743313711013
sg9
F-0.5513509600448888
sg10
F-0.44174776729088644
sg11
F-0.7389777930637972
sg12
F-0.5904892595450129
sg13
F-0.4105796439072099
sg14
F0.08122888796599614
sg15
F-0.24255802554569192
sg16
F0.03309359542350569
sg17
F-0.16689070458730987
sg18
I00
sg19
F0.0991101213018265
sg20
F-0.001493439077366923
sg21
F-0.3955559078149721
sg22
F0.050873976775730384
ssS'SHERRICK JEFFREY B'
p209
(dp210
g3
F-0.9494894516130448
sg4
F-0.767613810026438
sg5
F-0.565337394995293
sg6
F3.296075425772941
sg7
F-0.22996615114962227
sg8
F1.6214279016571667
sg9
F-0.5513509600448888
sg10
F-0.1445032397059702
sg11
F-0.7669417389757399
sg12
F-0.5904892595450129
sg13
F-0.11371342870719361
sg14
F-0.4019047822233099
sg15
F-0.24255802554569192
sg16
F-0.2520368824122106
sg17
F0.9200839797192394
sg18
I00
sg19
F0.3084199149295356
sg20
F-0.5985713426196342
sg21
F-0.19136386320173931
sg22
F-0.3432502677335984
ssS'PRENTICE JAMES'
p211
(dp212
g3
F-0.9494894516130448
sg4
F0.09003135814019478
sg5
F-0.565337394995293
sg6
F-0.4692131540861002
sg7
F-0.16639620140350297
sg8
F-0.244743313711013
sg9
F-0.5513509600448888
sg10
F-0.264121392649372
sg11
F-0.7669417389757399
sg12
F-0.5904892595450129
sg13
F-0.22614377971182562
sg14
F0.08122888796599614
sg15
F-0.24255802554569192
sg16
F0.03309359542350569
sg17
F-0.16689070458730987
sg18
I00
sg19
F0.3084199149295356
sg20
F-0.001493439077366923
sg21
F-0.29053807121033876
sg22
F0.050873976775730384
ssS'GRAY RODNEY'
p213
(dp214
g3
F-0.9131484575872352
sg4
F0.09003135814019478
sg5
F-0.565337394995293
sg6
F-0.4692131540861002
sg7
F-0.10080295497282062
sg8
F-0.244743313711013
sg9
F-0.5513509600448888
sg10
F-0.44174776729088644
sg11
F-0.7669417389757399
sg12
F-0.5904892595450129
sg13
F-0.4105796439072099
sg14
F0.08122888796599614
sg15
F0.47055740033263277
sg16
F0.03309359542350569
sg17
F-0.16689070458730987
sg18
I00
sg19
F0.3084199149295356
sg20
F-0.001493439077366923
sg21
F-0.3955559078149721
sg22
F0.050873976775730384
ssS'PICKERING MARK R'
p215
(dp216
g3
F2.6491040032145032
sg4
F-0.5922842606243967
sg5
F-0.1976675799570583
sg6
F-0.7760110351728682
sg7
F-0.07376498872245647
sg8
F1.0031322333726975
sg9
F-0.26257458524531896
sg10
F-0.43707644538764423
sg11
F-0.07488327146149105
sg12
F-0.44694612605379286
sg13
F-0.40458641638853965
sg14
F-0.37038450825613634
sg15
F-0.24255802554569192
sg16
F-0.5328340703112139
sg17
F-0.8400793050573703
sg18
I00
sg19
F0.3084199149295356
sg20
F-0.4165077491567781
sg21
F-0.3955559078149721
sg22
F-0.9900182587232661
ssS'NOLES JAMES L'
p217
(dp218
g3
F-0.9494894516130448
sg4
F0.09003135814019478
sg5
F-0.565337394995293
sg6
F-0.4692131540861002
sg7
F-0.14273516485509383
sg8
F-0.244743313711013
sg9
F-0.5513509600448888
sg10
F-0.3819401507086615
sg11
F-0.7669417389757399
sg12
F-0.5904892595450129
sg13
F-0.4105796439072099
sg14
F0.08122888796599614
sg15
F-0.24255802554569192
sg16
F0.03309359542350569
sg17
F-0.16689070458730987
sg18
I00
sg19
F0.3084199149295356
sg20
F-0.001493439077366923
sg21
F-0.16256466700016511
sg22
F0.050873976775730384
ssS'FOWLER PEGGY'
p219
(dp220
g3
F-0.9494894516130448
sg4
F-0.8266721845618624
sg5
F-0.565337394995293
sg6
F-0.7760110351728682
sg7
F-0.22996615114962227
sg8
F-2.482564879504378
sg9
F-0.5513509600448888
sg10
F-0.13602290394996278
sg11
F-0.7669417389757399
sg12
F-0.5904892595450129
sg13
F-0.13491823269027692
sg14
F-0.39364947237476444
sg15
F-0.24255802554569192
sg16
F-0.5328340703112139
sg17
F-1.0858526497248537
sg18
I00
sg19
F0.3084199149295356
sg20
F-1.318036439545266
sg21
F-0.11382551529924029
sg22
F-1.1314987567522559
ssS'WASAFF GEORGE'
p221
(dp222
g3
F0.478857197326394
sg4
F-0.898649578526911
sg5
F-0.03137207181928147
sg6
F0.5436466142077182
sg7
F-0.11344861557292656
sg8
F1.143245737496764
sg9
F-0.23850988734535483
sg10
F-0.1081748633559383
sg11
F-0.7669417389757399
sg12
F-0.19870796742098407
sg13
F-0.06339366778744902
sg14
F-0.39815236865578923
sg15
F-0.2410654576444935
sg16
F-0.42363516390604594
sg17
F0.6482538492932898
sg18
I00
sg19
F-0.7646275730115053
sg20
F-0.9074516460117903
sg21
F-0.20033224130006758
sg22
F-0.6868457629468594
ssS'WHITE JR THOMAS E'
p223
(dp224
g3
F0.7950046173117702
sg4
F0.09003135814019478
sg5
F-0.16997847572381625
sg6
F-0.4692131540861002
sg7
F-0.012073814469145731
sg8
F-0.244743313711013
sg9
F-0.11818639784553407
sg10
F2.014779542775573
sg11
F1.0117532506835876
sg12
F-0.14633179016596037
sg13
F-0.14064736528148028
sg14
F0.08122888796599614
sg15
F0.8943733651480082
sg16
F0.03309359542350569
sg17
F-0.16689070458730987
sg18
I00
sg19
F0.3084199149295356
sg20
F-0.001493439077366923
sg21
F6.568654230561565
sg22
F0.050873976775730384
ssS'ALLEN PHILLIP K'
p225
(dp226
g3
F0.15999587695571918
sg4
F0.6405593078025891
sg5
F1.016872783386743
sg6
F-0.6085308909299691
sg7
F0.275175627645353
sg8
F-0.4321688108082019
sg9
F3.4674535892491245
sg10
F-0.16119902238306616
sg11
F-0.4637329806435881
sg12
F5.888822389897911
sg13
F-0.050640317708567396
sg14
F1.226642706080657
sg15
F-0.24239881830289742
sg16
F0.48115577487963124
sg17
F-0.5752141843789935
sg18
I00
sg19
F-5.35929247174716
sg20
F0.4360521126451485
sg21
F-0.3321722275436614
sg22
F-0.18155826998618144
ssS'SHARP VICTORIA T'
p227
(dp228
g3
F0.4137565504320866
sg4
F0.7845140957326862
sg5
F0.0814631104440851
sg6
F-0.5264959333992278
sg7
F-0.05238294886272788
sg8
F0.911377901383201
sg9
F0.026201789554250832
sg10
F-0.36159399550185645
sg11
F1.7766404154868758
sg12
F0.16733930535378305
sg13
F-0.3520848026559005
sg14
F-0.31860120102435124
sg15
F-0.24004317955918147
sg16
F-0.4392350076782128
sg17
F-0.8445576823290081
sg18
I00
sg19
F0.3084199149295356
sg20
F1.7795558713020871
sg21
F-0.2883985758968412
sg22
F-0.6464227635100052
ssS'JAEDICKE ROBERT'
p229
(dp230
g3
F-0.9494894516130448
sg4
F0.09003135814019478
sg5
F-0.565337394995293
sg6
F-0.4692131540861002
sg7
F-0.22053228535894437
sg8
F-0.244743313711013
sg9
F-0.5513509600448888
sg10
F-0.37171362492944404
sg11
F-0.7669417389757399
sg12
F-0.5904892595450129
sg13
F-0.32072701590575525
sg14
F0.08122888796599614
sg15
F-0.24255802554569192
sg16
F0.03309359542350569
sg17
F-0.16689070458730987
sg18
I00
sg19
F0.26243150846911295
sg20
F-0.001493439077366923
sg21
F-0.3733798930387503
sg22
F0.050873976775730384
ssS'WINOKUR JR. HERBERT S'
p231
(dp232
g3
F-0.9494894516130448
sg4
F0.09003135814019478
sg5
F-0.565337394995293
sg6
F-0.4692131540861002
sg7
F-0.22039238253730828
sg8
F-0.244743313711013
sg9
F-0.5513509600448888
sg10
F-0.44174776729088644
sg11
F-0.7360480285976515
sg12
F-0.5904892595450129
sg13
F-0.4105796439072099
sg14
F0.08122888796599614
sg15
F-0.24255802554569192
sg16
F0.03309359542350569
sg17
F-0.16689070458730987
sg18
I00
sg19
F0.26243150846911295
sg20
F-0.001493439077366923
sg21
F-0.3955559078149721
sg22
F0.050873976775730384
ssS'BROWN MICHAEL'
p233
(dp234
g3
F-0.9494894516130448
sg4
F-0.23055171659492177
sg5
F-0.565337394995293
sg6
F-0.6380677268752459
sg7
F-0.224414194408238
sg8
F-0.3120289677261586
sg9
F-0.5513509600448888
sg10
F-0.44174776729088644
sg11
F0.3106868506316369
sg12
F-0.5904892595450129
sg13
F-0.4105796439072099
sg14
F-0.3898970588072438
sg15
F-0.24255802554569192
sg16
F-0.517234226539047
sg17
F-0.8100251140924559
sg18
I00
sg19
F0.3084199149295356
sg20
F-0.3750725865066108
sg21
F-0.3955559078149721
sg22
F-0.8687492604127034
ssS'BADUM JAMES P'
p235
(dp236
g3
F-0.9494894516130448
sg4
F0.09003135814019478
sg5
F-0.565337394995293
sg6
F-0.4692131540861002
sg7
F-0.20941260183186902
sg8
F-0.244743313711013
sg9
F-0.5513509600448888
sg10
F-0.3999272867322298
sg11
F-0.6907241350280993
sg12
F-0.5904892595450129
sg13
F-0.35692466997912414
sg14
F0.08122888796599614
sg15
F-0.24255802554569192
sg16
F0.03309359542350569
sg17
F-0.16689070458730987
sg18
I00
sg19
F0.3084199149295356
sg20
F-0.001493439077366923
sg21
F-0.3955559078149721
sg22
F0.050873976775730384
ssS'HUGHES JAMES A'
p237
(dp238
g3
F-0.9494894516130448
sg4
F-0.7024035214769068
sg5
F-0.565337394995293
sg6
F0.05570597073926609
sg7
F-0.22996615114962227
sg8
F1.0405854584254406
sg9
F-0.5513509600448888
sg10
F-0.260333141669154
sg11
F-0.7669417389757399
sg12
F-0.5904892595450129
sg13
F-0.2534616840884578
sg14
F-0.3951504378017727
sg15
F-0.24255802554569192
sg16
F-0.4548348514503796
sg17
F0.44894890459642633
sg18
I00
sg19
F0.3084199149295356
sg20
F-0.5910376766832401
sg21
F-0.2127744073933012
sg22
F-0.4240962666073068
ssS'REYNOLDS LAWRENCE'
p239
(dp240
g3
F-0.5297743189482185
sg4
F0.09003135814019478
sg5
F-0.13451663675935097
sg6
F-0.4692131540861002
sg7
F-0.1855312352358591
sg8
F-0.244743313711013
sg9
F-0.4550921684450322
sg10
F0.24308492600035225
sg11
F-0.5830880867681351
sg12
F-0.18024801060768691
sg13
F0.45530874857007647
sg14
F0.08122888796599614
sg15
F-0.030925513564681515
sg16
F0.03309359542350569
sg17
F-0.16689070458730987
sg18
I00
sg19
F-0.05948733675384535
sg20
F-0.001493439077366923
sg21
F-0.2942225899378148
sg22
F0.050873976775730384
ssS'DIMICHELE RICHARD G'
p241
(dp242
g3
F0.4941956788562595
sg4
F0.09003135814019478
sg5
F0.1523027327040101
sg6
F-0.4692131540861002
sg7
F0.03678989310183632
sg8
F-0.244743313711013
sg9
F0.41123695595367726
sg10
F0.9074791666279157
sg11
F0.016048746558657467
sg12
F0.6021839666891672
sg13
F1.2942280334386067
sg14
F0.08122888796599614
sg15
F0.1498972546873808
sg16
F0.03309359542350569
sg17
F-0.16689070458730987
sg18
I00
sg19
F0.3084199149295356
sg20
F-0.001493439077366923
sg21
F-0.3321722275436614
sg22
F0.050873976775730384
ssS'BHATNAGAR SANJAY'
p243
(dp244
g3
F-0.9494894516130448
sg4
F-0.8229810361533985
sg5
F-0.565337394995293
sg6
F-0.5809877372348505
sg7
F1.5110794068419826
sg8
F1.3316691785282095
sg9
F-0.5513509600448888
sg10
F-0.44174776729088644
sg11
F-0.7669417389757399
sg12
F-0.5904892595450129
sg13
F0.1314476197951842
sg14
F-0.3989028513692934
sg15
F-0.09815705633108371
sg16
F-0.517234226539047
sg17
F-1.0858526497248537
sg18
I00
sg19
F0.3084199149295356
sg20
F-0.7492446613475152
sg21
F-1.7054511003516992
sg22
F-1.1314987567522559
ssS'CARTER REBECCA C'
p245
(dp246
g3
F0.48881732161494923
sg4
F-0.9527864218510501
sg5
F0.5022714052429397
sg6
F1.8633042635883046
sg7
F-0.17617261508515938
sg8
F0.19932857831975145
sg9
F-0.26257458524531896
sg10
F-0.44174776729088644
sg11
F-0.7669417389757399
sg12
F-0.2313493387146048
sg13
F-0.4105796439072099
sg14
F-0.40940960935835125
sg15
F-0.24199242086734304
sg16
F-0.42363516390604594
sg17
F1.8447469115528945
sg18
I00
sg19
F0.014476737124581553
sg20
F-1.0844927955170505
sg21
F-0.24100276974889054
sg22
F-0.5453652649178695
ssS'BUCHANAN HAROLD G'
p247
(dp248
g3
F0.41304785984564224
sg4
F-0.47539789435636903
sg5
F0.24038067958924758
sg6
F-0.7760110351728682
sg7
F-0.11116849245250982
sg8
F-2.474648003919768
sg9
F-0.07005700204560578
sg10
F-0.2771849703102377
sg11
F-0.7538233906198638
sg12
F0.04136301625791131
sg13
F-0.2387901598988885
sg14
F-0.3268565108728967
sg15
F-0.24128541501940695
sg16
F-0.5328340703112139
sg17
F-1.0858526497248537
sg18
I00
sg19
F0.3084199149295356
sg20
F-1.3017134966830788
sg21
F-0.30048013593935136
sg22
F-1.1314987567522559
ssS'YEAP SOON'
p249
(dp250
g3
F-0.9494894516130448
sg4
F0.09003135814019478
sg5
F-0.565337394995293
sg6
F-0.4692131540861002
sg7
F-0.22375985021267922
sg8
F-0.244743313711013
sg9
F-0.5513509600448888
sg10
F-0.4104805033341825
sg11
F0.437694326630445
sg12
F-0.5904892595450129
sg13
F-0.37046426957413664
sg14
F0.08122888796599614
sg15
F-0.24255802554569192
sg16
F0.03309359542350569
sg17
F-0.16689070458730987
sg18
I00
sg19
F0.3084199149295356
sg20
F-0.001493439077366923
sg21
F-0.3955559078149721
sg22
F0.050873976775730384
ssS'MURRAY JULIA H'
p251
(dp252
g3
F0.31013390049787337
sg4
F0.20377341280101227
sg5
F0.27164499396657193
sg6
F-0.5246476733860898
sg7
F-0.13847804139447187
sg8
F-1.7740226054000372
sg9
F-0.16631579364546237
sg10
F-0.34483365326793397
sg11
F0.491982424909846
sg12
F-0.043708478024055974
sg13
F-0.32723511407103956
sg14
F-0.3868951279532272
sg15
F-0.2422123782422565
sg16
F-0.5016343827668802
sg17
F-0.9276312538290377
sg18
I00
sg19
F0.3084199149295356
sg20
F-0.8346262086266478
sg21
F-0.2964858078293849
sg22
F-0.9091722598495576
ssS'GARLAND C KEVIN'
p253
(dp254
g3
F0.3247581977158182
sg4
F-1.0161511361963493
sg5
F0.3568373548041268
sg6
F2.6945171985877647
sg7
F-0.053514111612220264
sg8
F1.1836578161277702
sg9
F0.26684876855389233
sg10
F-0.2963828413392161
sg11
F0.29138101463457244
sg12
F0.5580848913749579
sg13
F-0.27816881552177036
sg14
F-0.38764561066673137
sg15
F-0.17886046460289914
sg16
F-0.11163828846270897
sg17
F0.4227219470721393
sg18
I00
sg19
F0.3084199149295356
sg20
F-1.1070937933262326
sg21
F-0.2648389805829063
sg22
F-0.9293837595679847
ssS'DODSON KEITH'
p255
(dp256
g3
F0.2646403598285266
sg4
F-1.0364524524429013
sg5
F-0.19350754816857726
sg6
F0.43591945915624164
sg7
F-0.19392698153845478
sg8
F0.2853189104450333
sg9
F-0.48396980592498917
sg10
F-0.44174776729088644
sg11
F-0.15116646715091117
sg12
F-0.49121723688335694
sg13
F-0.4105796439072099
sg14
F-0.41016009207185533
sg15
F-0.2417473255067252
sg16
F-0.4860345389947133
sg17
F0.7055796839715754
sg18
I00
sg19
F0.3084199149295356
sg20
F-1.187452896647769
sg21
F-0.3955559078149721
sg22
F-0.9293837595679847
ssS'YEAGER F SCOTT'
p257
(dp258
g3
F-0.07926685498865857
sg4
F0.3422793626043293
sg5
F-0.565337394995293
sg6
F0.48020800120029394
sg7
F-0.1893808156943238
sg8
F0.6813969157341903
sg9
F-0.5513509600448888
sg10
F1.4860781359014497
sg11
F0.4125508256150156
sg12
F-0.5904892595450129
sg13
F1.318534964284434
sg14
F-0.19525400646913635
sg15
F-0.08759281783881206
sg16
F0.5078983642033458
sg17
F0.18966411212547843
sg18
I01
sg19
F0.3084199149295356
sg20
F0.9081618446591756
sg21
F1.4030515151050613
sg22
F0.844897179999653
ssS'HIRKO JOSEPH'
p259
(dp260
g3
F-0.9494894516130448
sg4
F0.3422793626043293
sg5
F-0.565337394995293
sg6
F0.48020800120029394
sg7
F-0.21970514653505244
sg8
F0.6813969157341903
sg9
F-0.5513509600448888
sg10
F4.548813682801175
sg11
F0.9379625411817839
sg12
F-0.5904892595450129
sg13
F5.99222684980662
sg14
F-0.19525400646913635
sg15
F-0.239566605246869
sg16
F0.5078983642033458
sg17
F0.18966411212547843
sg18
I01
sg19
F0.3084199149295356
sg20
F0.9081618446591756
sg21
F-0.3955559078149721
sg22
F0.844897179999653
ssS'DIETRICH JANET R'
p261
(dp262
g3
F0.4244912900128019
sg4
F0.4375461453370674
sg5
F0.15760775754368667
sg6
F0.48080577376102346
sg7
F-0.07108700991281376
sg8
F0.6895658869390092
sg9
F0.026201789554250832
sg10
F-0.13921211361520497
sg11
F-0.6909646380812903
sg12
F0.16141848561842828
sg13
F-0.08800111327099275
sg14
F-0.37338643911015285
sg15
F-0.24206259774410113
sg16
F-0.314436257500878
sg17
F2.6530310078499646
sg18
I00
sg19
F0.3084199149295356
sg20
F1.0575795523976574
sg21
F-0.23709645566804063
sg22
F5.033008657368015
ssS'DERRICK JR. JAMES V'
p263
(dp264
g3
F1.7554836297865004
sg4
F0.1970063073854949
sg5
F1.9022325372546138
sg6
F-0.6515737273576314
sg7
F-0.16790190270528196
sg8
F0.2617033019776067
sg9
F0.21871937275396403
sg10
F0.9908763262027408
sg11
F0.35082899660061806
sg12
F-0.08125103782274398
sg13
F1.4274529984325968
sg14
F0.261521936514343
sg15
F-0.23472125850234704
sg16
F-0.2208371948678769
sg17
F-0.16064889884192946
sg18
I00
sg19
F-2.05354464087777
sg20
F0.42851844670875444
sg21
F0.5033841799704658
sg22
F0.16203722522707953
ssS'PAI LOU L'
p265
(dp266
g3
F0.4892018823982911
sg4
F0.09003135814019478
sg5
F-0.021222188486442722
sg6
F-0.4692131540861002
sg7
F0.1218616224012423
sg8
F-0.244743313711013
sg9
F0.41123695595367726
sg10
F3.4217572712148905
sg11
F-0.06626888937446569
sg12
F0.606323817393679
sg13
F2.7868975581848012
sg14
F0.08122888796599614
sg15
F1.6736446374878011
sg16
F0.03309359542350569
sg17
F-0.16689070458730987
sg18
I00
sg19
F0.3084199149295356
sg20
F-0.001493439077366923
sg21
F3.856156908339
sg22
F0.050873976775730384
ssS'BAY FRANKLIN R'
p267
(dp268
g3
F0.3671972270203351
sg4
F0.09003135814019478
sg5
F0.2559690682720091
sg6
F-0.4692131540861002
sg7
F-0.1367318469170141
sg8
F-0.244743313711013
sg9
F-0.16631579364546237
sg10
F-0.431526270019864
sg11
F2.0566078333152005
sg12
F-0.06740517882497968
sg13
F-0.4105796439072099
sg14
F0.08122888796599614
sg15
F-0.24248575383679177
sg16
F0.03309359542350569
sg17
F-0.16689070458730987
sg18
I00
sg19
F-0.06250601575390749
sg20
F-0.001493439077366923
sg21
F-0.32222965987733954
sg22
F0.050873976775730384
ssS'HAYSLETT RODERICK J'
p269
(dp270
g3
F-0.9494894516130448
sg4
F0.4849158832456891
sg5
F-0.565337394995293
sg6
F-0.5734514929224482
sg7
F-0.22996615114962227
sg8
F-1.6183042218465067
sg9
F-0.5513509600448888
sg10
F-0.38551558224527044
sg11
F-0.7669417389757399
sg12
F-0.5904892595450129
sg13
F-0.4105796439072099
sg14
F0.3755953089669711
sg15
F-0.24255802554569192
sg16
F0.05995999303112636
sg17
F-0.6692719333952951
sg18
I00
sg19
F0.3084199149295356
sg20
F-0.6136386744924224
sg21
F-0.22120615138267272
sg22
F-0.4240962666073068
ssS'FUGH JOHN L'
p271
(dp272
g3
F-0.9494894516130448
sg4
F0.09003135814019478
sg5
F-0.565337394995293
sg6
F-0.4692131540861002
sg7
F-0.2242674203530111
sg8
F-0.244743313711013
sg9
F-0.5513509600448888
sg10
F-0.4131375021804603
sg11
F-0.7669417389757399
sg12
F-0.5904892595450129
sg13
F-0.37387315445349695
sg14
F0.08122888796599614
sg15
F-0.24255802554569192
sg16
F0.03309359542350569
sg17
F-0.16689070458730987
sg18
I00
sg19
F0.3084199149295356
sg20
F-0.001493439077366923
sg21
F-0.3955559078149721
sg22
F0.050873976775730384
ssS'FALLON JAMES B'
p273
(dp274
g3
F0.7238334037661371
sg4
F-0.06506522961545115
sg5
F0.5903501815422637
sg6
F2.0141222806603714
sg7
F0.18414845375665578
sg8
F1.4580102822510752
sg9
F1.8551188299515262
sg10
F-0.06340946130435296
sg11
F1.330332340506041
sg12
F1.9820038440541743
sg13
F-0.21490028676357642
sg14
F-0.36438064654810326
sg15
F0.17795962606205282
sg16
F0.044360149258959515
sg17
F-0.3313074753269047
sg18
I00
sg19
F0.3084199149295356
sg20
F0.6834074775567531
sg21
F0.30460424374194084
sg22
F-0.28261576857831705
ssS'KOENIG MARK E'
p275
(dp276
g3
F0.7532687848682215
sg4
F0.3157382478577545
sg5
F0.18407698860922184
sg6
F0.6147288763523399
sg7
F-0.0511540118385333
sg8
F1.6458873141074282
sg9
F0.12246058115410743
sg10
F-0.1302957575357058
sg11
F2.010147016221472
sg12
F0.11735710157253473
sg13
F-0.2707826901705263
sg14
F-0.37488740453716113
sg15
F-0.08496589833270286
sg16
F-0.2988364137287111
sg17
F-0.3819570806970402
sg18
I01
sg19
F0.3084199149295356
sg20
F1.5209000074858916
sg21
F0.23226978817812519
sg22
F-0.060289271675618754
ssS'SAVAGE FRANK'
p277
(dp278
g3
F-0.9494894516130448
sg4
F0.09003135814019478
sg5
F-0.565337394995293
sg6
F-0.4692131540861002
sg7
F-0.22954373924854712
sg8
F-0.244743313711013
sg9
F-0.5513509600448888
sg10
F-0.44174776729088644
sg11
F-0.7669417389757399
sg12
F-0.5904892595450129
sg13
F-0.4105796439072099
sg14
F0.08122888796599614
sg15
F-0.24255802554569192
sg16
F0.03309359542350569
sg17
F-0.16689070458730987
sg18
I00
sg19
F0.08531359936369971
sg20
F-0.001493439077366923
sg21
F-0.3955559078149721
sg22
F0.050873976775730384
ssS'IZZO LAWRENCE L'
p279
(dp280
g3
F-0.48101750534594184
sg4
F-0.8395912039914866
sg5
F-0.565337394995293
sg6
F0.7123246596172667
sg7
F-0.0069781752240962265
sg8
F1.3130420734262251
sg9
F-0.5513509600448888
sg10
F0.502310849641939
sg11
F-0.15271880503968985
sg12
F-0.5904892595450129
sg13
F0.040019995409907874
sg14
F-0.4064076785043347
sg15
F1.3848426990585847
sg16
F-0.4548348514503796
sg17
F0.6940220560122436
sg18
I00
sg19
F0.3084199149295356
sg20
F-0.7818905470718894
sg21
F1.44258339348577
sg22
F-0.5655767646362967
ssS'TILNEY ELIZABETH A'
p281
(dp282
g3
F0.4093176202472258
sg4
F-0.8617380944422707
sg5
F0.7112099050709819
sg6
F2.4983274933654287
sg7
F-0.18497725610799579
sg8
F1.0613746826703063
sg9
F-0.26257458524531896
sg10
F-0.25227974247989887
sg11
F-0.7669417389757399
sg12
F-0.21033714570610293
sg13
F-0.28753305142114144
sg14
F-0.4064076785043347
sg15
F-0.08329317486728964
sg16
F-0.36123578881737856
sg17
F-0.400435061180133
sg18
I00
sg19
F-0.7493134336601845
sg20
F-0.8547159844570319
sg21
F-0.10546569134508978
sg22
F-0.9293837595679847
ssS'MARTIN AMANDA K'
p283
(dp284
g3
F0.9704961839271083
sg4
F-0.2084048261441376
sg5
F-0.565337394995293
sg6
F-0.7760110351728682
sg7
F0.7170268117647867
sg8
F-1.187296938539306
sg9
F-0.5513509600448888
sg10
F-0.1059235515740403
sg11
F-0.5874171417255741
sg12
F-0.5904892595450129
sg13
F0.02027718265255756
sg14
F-0.24805582595496278
sg15
F2.7095359894748308
sg16
F-0.5328340703112139
sg17
F-0.9201275034801379
sg18
I00
sg19
F0.3084199149295356
sg20
F-0.7316661074959291
sg21
F-0.3955559078149721
sg22
F-0.9698067590048389
ssS'BUY RICHARD B'
p285
(dp286
g3
F0.8664395296802664
sg4
F1.022593168078616
sg5
F0.08395193253684356
sg6
F-0.39466918288950786
sg7
F0.03538759823344051
sg8
F0.34915454886088837
sg9
F0.31497816435382064
sg10
F0.11697951085553489
sg11
F-0.7669417389757399
sg12
F0.26288119599843623
sg13
F0.11861185711482355
sg14
F0.36959144725893806
sg15
F0.17700752485349888
sg16
F0.5747548375126323
sg17
F0.31027468930350727
sg18
I00
sg19
F-0.9698039286665516
sg20
F1.5987478888286302
sg21
F0.05792103762044429
sg22
F2.021495199322374
ssS'GRAMM WENDY L'
p287
(dp288
g3
F-0.9494894516130448
sg4
F0.09003135814019478
sg5
F-0.565337394995293
sg6
F-0.4692131540861002
sg7
F-0.2165287216821411
sg8
F-0.244743313711013
sg9
F-0.5513509600448888
sg10
F-0.44174776729088644
sg11
F-0.7669417389757399
sg12
F-0.5904892595450129
sg13
F-0.4105796439072099
sg14
F0.08122888796599614
sg15
F-0.24255802554569192
sg16
F0.03309359542350569
sg17
F-0.16689070458730987
sg18
I00
sg19
F0.3084199149295356
sg20
F-0.001493439077366923
sg21
F-0.3955559078149721
sg22
F0.050873976775730384
ssS'CAUSEY RICHARD A'
p289
(dp290
g3
F1.3314449351718158
sg4
F0.01921599237781084
sg5
F0.34407954719370765
sg6
F0.609052386917543
sg7
F-0.01946331930179362
sg8
F1.122269588378053
sg9
F0.41123695595367726
sg10
F-0.03588827374300551
sg11
F-0.09628804319549572
sg12
F0.16439637513130967
sg13
F-0.4105796439072099
sg14
F-0.3838931970992107
sg15
F0.07993614563990979
sg16
F-0.34563594504521167
sg17
F-0.11931241387003609
sg18
I01
sg19
F-0.123871105798437
sg20
F0.6595508687581719
sg21
F0.8628249249484559
sg22
F0.040768226916516825
ssS'TAYLOR MITCHELL S'
p291
(dp292
g3
F0.5075234568617945
sg4
F-0.8168291221392917
sg5
F0.3678763329617618
sg6
F-0.7760110351728682
sg7
F-0.10688512313243438
sg8
F-0.0885371276227648
sg9
F0.026201789554250832
sg10
F0.1657362507344408
sg11
F-0.7669417389757399
sg12
F0.11856881078829005
sg13
F0.2514786602725878
sg14
F-0.3989028513692934
sg15
F-0.24255802554569192
sg16
F-0.5328340703112139
sg17
F-1.0858526497248537
sg18
I00
sg19
F0.3084199149295356
sg20
F-0.9539092526195535
sg21
F-0.11200085874132559
sg22
F-1.1314987567522559
ssS'DONAHUE JR JEFFREY M'
p293
(dp294
g3
F0.5810679598131948
sg4
F-0.6125855768709487
sg5
F0.9871246366583402
sg6
F2.051826784928388
sg7
F-0.13131776542014076
sg8
F1.3634200101813625
sg9
F0.21871937275396403
sg10
F-0.2664007667511971
sg11
F1.3378535268967433
sg12
F0.3094937606900263
sg13
F-0.25118201833946435
sg14
F-0.4041562303638223
sg15
F-0.24162477782641628
sg16
F-0.36123578881737856
sg17
F5.766738455170805
sg18
I00
sg19
F-0.24344096259553583
sg20
F-0.3612608656232217
sg21
F-0.23709645566804063
sg22
F2.6682631903120417
ssS'GLISAN JR BEN F'
p295
(dp296
g3
F0.5611477112360843
sg4
F-0.6076640456596634
sg5
F0.23612525927901953
sg6
F1.344867329903074
sg7
F-0.08665204364363015
sg8
F1.8420407444674918
sg9
F0.026201789554250832
sg10
F-0.315459865961572
sg11
F1.9874304096518798
sg12
F0.09339882870074269
sg13
F-0.3305128879935014
sg14
F-0.4086591266448471
sg15
F-0.032752207192534154
sg16
F-0.4392350076782128
sg17
F0.7921758403083329
sg18
I01
sg19
F0.3084199149295356
sg20
F-0.23318854470452285
sg21
F-0.19749014256556482
sg22
F-0.08050077139404586
ss.